
cracha-led.elf:     file format elf32-avr

Sections:
Idx Name          Size      VMA       LMA       File off  Algn
  0 .data         00000000  00800100  00001852  000018e6  2**0
                  CONTENTS, ALLOC, LOAD, DATA
  1 .text         00001852  00000000  00000000  00000094  2**1
                  CONTENTS, ALLOC, LOAD, READONLY, CODE
  2 .bss          00000011  00800100  00800100  000018e6  2**0
                  ALLOC
  3 .stab         000006cc  00000000  00000000  000018e8  2**2
                  CONTENTS, READONLY, DEBUGGING
  4 .stabstr      00000082  00000000  00000000  00001fb4  2**0
                  CONTENTS, READONLY, DEBUGGING
  5 .comment      0000002f  00000000  00000000  00002036  2**0
                  CONTENTS, READONLY
  6 .debug_aranges 00000028  00000000  00000000  00002065  2**0
                  CONTENTS, READONLY, DEBUGGING
  7 .debug_info   000002f5  00000000  00000000  0000208d  2**0
                  CONTENTS, READONLY, DEBUGGING
  8 .debug_abbrev 0000015e  00000000  00000000  00002382  2**0
                  CONTENTS, READONLY, DEBUGGING
  9 .debug_line   0000021c  00000000  00000000  000024e0  2**0
                  CONTENTS, READONLY, DEBUGGING
 10 .debug_frame  00000068  00000000  00000000  000026fc  2**2
                  CONTENTS, READONLY, DEBUGGING
 11 .debug_str    0000016f  00000000  00000000  00002764  2**0
                  CONTENTS, READONLY, DEBUGGING
 12 .debug_loc    000002ff  00000000  00000000  000028d3  2**0
                  CONTENTS, READONLY, DEBUGGING
 13 .debug_ranges 00000030  00000000  00000000  00002bd2  2**0
                  CONTENTS, READONLY, DEBUGGING

Disassembly of section .text:

00000000 <__vectors>:
       0:	0c 94 f5 0a 	jmp	0x15ea	; 0x15ea <__ctors_end>
       4:	0c 94 07 0b 	jmp	0x160e	; 0x160e <__bad_interrupt>
       8:	0c 94 07 0b 	jmp	0x160e	; 0x160e <__bad_interrupt>
       c:	0c 94 07 0b 	jmp	0x160e	; 0x160e <__bad_interrupt>
      10:	0c 94 07 0b 	jmp	0x160e	; 0x160e <__bad_interrupt>
      14:	0c 94 07 0b 	jmp	0x160e	; 0x160e <__bad_interrupt>
      18:	0c 94 07 0b 	jmp	0x160e	; 0x160e <__bad_interrupt>
      1c:	0c 94 07 0b 	jmp	0x160e	; 0x160e <__bad_interrupt>
      20:	0c 94 07 0b 	jmp	0x160e	; 0x160e <__bad_interrupt>
      24:	0c 94 07 0b 	jmp	0x160e	; 0x160e <__bad_interrupt>
      28:	0c 94 07 0b 	jmp	0x160e	; 0x160e <__bad_interrupt>
      2c:	0c 94 07 0b 	jmp	0x160e	; 0x160e <__bad_interrupt>
      30:	0c 94 07 0b 	jmp	0x160e	; 0x160e <__bad_interrupt>
      34:	0c 94 07 0b 	jmp	0x160e	; 0x160e <__bad_interrupt>
      38:	0c 94 07 0b 	jmp	0x160e	; 0x160e <__bad_interrupt>
      3c:	0c 94 07 0b 	jmp	0x160e	; 0x160e <__bad_interrupt>
      40:	0c 94 54 0b 	jmp	0x16a8	; 0x16a8 <__vector_16>
      44:	0c 94 07 0b 	jmp	0x160e	; 0x160e <__bad_interrupt>
      48:	0c 94 07 0b 	jmp	0x160e	; 0x160e <__bad_interrupt>
      4c:	0c 94 07 0b 	jmp	0x160e	; 0x160e <__bad_interrupt>
      50:	0c 94 07 0b 	jmp	0x160e	; 0x160e <__bad_interrupt>
      54:	0c 94 07 0b 	jmp	0x160e	; 0x160e <__bad_interrupt>
      58:	0c 94 07 0b 	jmp	0x160e	; 0x160e <__bad_interrupt>
      5c:	0c 94 07 0b 	jmp	0x160e	; 0x160e <__bad_interrupt>
      60:	0c 94 07 0b 	jmp	0x160e	; 0x160e <__bad_interrupt>
      64:	0c 94 07 0b 	jmp	0x160e	; 0x160e <__bad_interrupt>

00000068 <ANIMACAO>:
      68:	20 00 00 01 02 03 04 05 06 07 08 09 0a 0b 0c 0d      ...............
      78:	0e 0f 10 11 12 13 14 15 16 17 18 19 1a 1b 1c 1d     ................
      88:	1e 1f 20 21 22 23 24 25 26 27 28 29 2a 2b 2c 2d     .. !"#$%&'()*+,-
      98:	2e 2f 30 31 32 33 34 35 36 37 38 39 3a 3b 3c 3d     ./0123456789:;<=
      a8:	3e 3f 40 41 42 43 44 45 46 47 48 49 4a 4b 4c 4d     >?@ABCDEFGHIJKLM
      b8:	4e 4f 50 51 52 53 54 55 56 57 58 59 5a 5b 5c 5d     NOPQRSTUVWXYZ[\]
      c8:	5e 5f 60 61 62 63 00 01 02 03 04 05 06 07 08 09     ^_`abc..........
      d8:	0a 0b 0c 0d 0e 0f 10 11 12 13 14 15 16 17 18 19     ................
      e8:	1a 1b 1c 1d 1e 1f 20 21 22 23 24 25 26 27 28 29     ...... !"#$%&'()
      f8:	2a 2b 2c 2d 2e 2f 30 31 32 33 34 35 36 37 38 39     *+,-./0123456789
     108:	3a 3b 3c 3d 3e 3f 40 41 42 43 44 45 46 47 48 49     :;<=>?@ABCDEFGHI
     118:	4a 4b 4c 4d 4e 4f 50 51 52 53 54 55 56 57 58 59     JKLMNOPQRSTUVWXY
     128:	5a 5b 5c 5d 5e 5f 60 61 62 63 00 01 02 03 04 05     Z[\]^_`abc......
     138:	06 07 08 09 0a 0b 0c 0d 0e 0f 10 11 12 13 14 15     ................
     148:	16 17 18 19 1a 1b 1c 1d 1e 1f 20 21 22 23 24 25     .......... !"#$%
     158:	26 27 28 29 2a 2b 2c 2d 2e 2f 30 31 32 33 34 35     &'()*+,-./012345
     168:	36 37 38 39 3a 3b 3c 3d 3e 3f 40 41 42 43 44 45     6789:;<=>?@ABCDE
     178:	46 47 48 49 4a 4b 4c 4d 4e 4f 50 51 52 53 54 55     FGHIJKLMNOPQRSTU
     188:	56 57 58 59 5a 5b 5c 5d 5e 5f 60 61 62 63 00 01     VWXYZ[\]^_`abc..
     198:	02 03 04 05 06 07 08 09 0a 0b 0c 0d 0e 0f 10 11     ................
     1a8:	12 13 14 15 16 17 18 19 1a 1b 1c 1d 1e 1f 20 21     .............. !
     1b8:	22 23 24 25 26 27 28 29 2a 2b 2c 2d 2e 2f 30 31     "#$%&'()*+,-./01
     1c8:	32 33 34 35 36 37 38 39 3a 3b 3c 3d 3e 3f 40 41     23456789:;<=>?@A
     1d8:	42 43 44 45 46 47 48 49 4a 4b 4c 4d 4e 4f 50 51     BCDEFGHIJKLMNOPQ
     1e8:	52 53 54 55 56 57 58 59 5a 5b 5c 5d 5e 5f 60 61     RSTUVWXYZ[\]^_`a
     1f8:	62 63 00 01 02 03 04 05 06 07 08 09 0a 0b 0c 0d     bc..............
     208:	0e 0f 10 11 12 13 14 15 16 17 18 19 1a 1b 1c 1d     ................
     218:	1e 1f 20 21 22 23 24 25 26 27 28 29 2a 2b 2c 2d     .. !"#$%&'()*+,-
     228:	2e 2f 30 31 32 33 34 35 36 37 38 39 3a 3b 3c 3d     ./0123456789:;<=
     238:	3e 3f 40 41 42 43 44 45 46 47 48 49 4a 4b 4c 4d     >?@ABCDEFGHIJKLM
     248:	4e 4f 50 51 52 53 54 55 56 57 58 59 5a 5b 5c 5d     NOPQRSTUVWXYZ[\]
     258:	5e 5f 60 61 62 63 00 01 02 03 04 05 06 07 08 09     ^_`abc..........
     268:	0a 0b 0c 0d 0e 0f 10 11 12 13 14 15 16 17 18 19     ................
     278:	1a 1b 1c 1d 1e 1f 20 21 22 23 24 25 26 27 28 29     ...... !"#$%&'()
     288:	2a 2b 2c 2d 2e 2f 30 31 32 33 34 35 36 37 38 39     *+,-./0123456789
     298:	3a 3b 3c 3d 3e 3f 40 41 42 43 44 45 46 47 48 49     :;<=>?@ABCDEFGHI
     2a8:	4a 4b 4c 4d 4e 4f 50 51 52 53 54 55 56 57 58 59     JKLMNOPQRSTUVWXY
     2b8:	5a 5b 5c 5d 5e 5f 60 61 62 63 00 01 02 03 04 05     Z[\]^_`abc......
     2c8:	06 07 08 09 0a 0b 0c 0d 0e 0f 10 11 12 13 14 15     ................
     2d8:	16 17 18 19 1a 1b 1c 1d 1e 1f 20 21 22 23 24 25     .......... !"#$%
     2e8:	26 27 28 29 2a 2b 2c 2d 2e 2f 30 31 32 33 34 35     &'()*+,-./012345
     2f8:	36 37 38 39 3a 3b 3c 3d 3e 3f 40 41 42 43 44 45     6789:;<=>?@ABCDE
     308:	46 47 48 49 4a 4b 4c 4d 4e 4f 50 51 52 53 54 55     FGHIJKLMNOPQRSTU
     318:	56 57 58 59 5a 5b 5c 5d 5e 5f 60 61 62 63 00 01     VWXYZ[\]^_`abc..
     328:	02 03 04 05 06 07 08 09 0a 0b 0c 0d 0e 0f 10 11     ................
     338:	12 13 14 15 16 17 18 19 1a 1b 1c 1d 1e 1f 20 21     .............. !
     348:	22 23 24 25 26 27 28 29 2a 2b 2c 2d 2e 2f 30 31     "#$%&'()*+,-./01
     358:	32 33 34 35 36 37 38 39 3a 3b 3c 3d 3e 3f 40 41     23456789:;<=>?@A
     368:	42 43 44 45 46 47 48 49 4a 4b 4c 4d 4e 4f 50 51     BCDEFGHIJKLMNOPQ
     378:	52 53 54 55 56 57 58 59 5a 5b 5c 5d 5e 5f 60 61     RSTUVWXYZ[\]^_`a
     388:	62 63 00 01 02 03 04 05 06 07 08 09 0a 0b 0c 0d     bc..............
     398:	0e 0f 10 11 12 13 14 15 16 17 18 19 1a 1b 1c 1d     ................
     3a8:	1e 1f 20 21 22 23 24 25 26 27 28 29 2a 2b 2c 2d     .. !"#$%&'()*+,-
     3b8:	2e 2f 30 31 32 33 34 35 36 37 38 39 3a 3b 3c 3d     ./0123456789:;<=
     3c8:	3e 3f 40 41 42 43 44 45 46 47 48 49 4a 4b 4c 4d     >?@ABCDEFGHIJKLM
     3d8:	4e 4f 50 51 52 53 54 55 56 57 58 59 5a 5b 5c 5d     NOPQRSTUVWXYZ[\]
     3e8:	5e 5f 60 61 62 63 00 01 02 03 04 05 06 07 08 09     ^_`abc..........
     3f8:	0a 0b 0c 0d 0e 0f 10 11 12 13 14 15 16 17 18 19     ................
     408:	1a 1b 1c 1d 1e 1f 20 21 22 23 24 25 26 27 28 29     ...... !"#$%&'()
     418:	2a 2b 2c 2d 2e 2f 30 31 32 33 34 35 36 37 38 39     *+,-./0123456789
     428:	3a 3b 3c 3d 3e 3f 40 41 42 43 44 45 46 47 48 49     :;<=>?@ABCDEFGHI
     438:	4a 4b 4c 4d 4e 4f 50 51 52 53 54 55 56 57 58 59     JKLMNOPQRSTUVWXY
     448:	5a 5b 5c 5d 5e 5f 60 61 62 63 00 01 02 03 04 05     Z[\]^_`abc......
     458:	06 07 08 09 0a 0b 0c 0d 0e 0f 10 11 12 13 14 15     ................
     468:	16 17 18 19 1a 1b 1c 1d 1e 1f 20 21 22 23 24 25     .......... !"#$%
     478:	26 27 28 29 2a 2b 2c 2d 2e 2f 30 31 32 33 34 35     &'()*+,-./012345
     488:	36 37 38 39 3a 3b 3c 3d 3e 3f 40 41 42 43 44 45     6789:;<=>?@ABCDE
     498:	46 47 48 49 4a 4b 4c 4d 4e 4f 50 51 52 53 54 55     FGHIJKLMNOPQRSTU
     4a8:	56 57 58 59 5a 5b 5c 5d 5e 5f 60 61 62 63 00 01     VWXYZ[\]^_`abc..
     4b8:	02 03 04 05 06 07 08 09 0a 0b 0c 0d 0e 0f 10 11     ................
     4c8:	12 13 14 15 16 17 18 19 1a 1b 1c 1d 1e 1f 20 21     .............. !
     4d8:	22 23 24 25 26 27 28 29 2a 2b 2c 2d 2e 2f 30 31     "#$%&'()*+,-./01
     4e8:	32 33 34 35 36 37 38 39 3a 3b 3c 3d 3e 3f 40 41     23456789:;<=>?@A
     4f8:	42 43 44 45 46 47 48 49 4a 4b 4c 4d 4e 4f 50 51     BCDEFGHIJKLMNOPQ
     508:	52 53 54 55 56 57 58 59 5a 5b 5c 5d 5e 5f 60 61     RSTUVWXYZ[\]^_`a
     518:	62 63 00 01 02 03 04 05 06 07 08 09 0a 0b 0c 0d     bc..............
     528:	0e 0f 10 11 12 13 14 15 16 17 18 19 1a 1b 1c 1d     ................
     538:	1e 1f 20 21 22 23 24 25 26 27 28 29 2a 2b 2c 2d     .. !"#$%&'()*+,-
     548:	2e 2f 30 31 32 33 34 35 36 37 38 39 3a 3b 3c 3d     ./0123456789:;<=
     558:	3e 3f 40 41 42 43 44 45 46 47 48 49 4a 4b 4c 4d     >?@ABCDEFGHIJKLM
     568:	4e 4f 50 51 52 53 54 55 56 57 58 59 5a 5b 5c 5d     NOPQRSTUVWXYZ[\]
     578:	5e 5f 60 61 62 63 00 01 02 03 04 05 06 07 08 09     ^_`abc..........
     588:	0a 0b 0c 0d 0e 0f 10 11 12 13 14 15 16 17 18 19     ................
     598:	1a 1b 1c 1d 1e 1f 20 21 22 23 24 25 26 27 28 29     ...... !"#$%&'()
     5a8:	2a 2b 2c 2d 2e 2f 30 31 32 33 34 35 36 37 38 39     *+,-./0123456789
     5b8:	3a 3b 3c 3d 3e 3f 40 41 42 43 44 45 46 47 48 49     :;<=>?@ABCDEFGHI
     5c8:	4a 4b 4c 4d 4e 4f 50 51 52 53 54 55 56 57 58 59     JKLMNOPQRSTUVWXY
     5d8:	5a 5b 5c 5d 5e 5f 60 61 62 63 00 01 02 03 04 05     Z[\]^_`abc......
     5e8:	06 07 08 09 0a 0b 0c 0d 0e 0f 10 11 12 13 14 15     ................
     5f8:	16 17 18 19 1a 1b 1c 1d 1e 1f 20 21 22 23 24 25     .......... !"#$%
     608:	26 27 28 29 2a 2b 2c 2d 2e 2f 30 31 32 33 34 35     &'()*+,-./012345
     618:	36 37 38 39 3a 3b 3c 3d 3e 3f 40 41 42 43 44 45     6789:;<=>?@ABCDE
     628:	46 47 48 49 4a 4b 4c 4d 4e 4f 50 51 52 53 54 55     FGHIJKLMNOPQRSTU
     638:	56 57 58 59 5a 5b 5c 5d 5e 5f 60 61 62 63 00 01     VWXYZ[\]^_`abc..
     648:	02 03 04 05 06 07 08 09 0a 0b 0c 0d 0e 0f 10 11     ................
     658:	12 13 14 15 16 17 18 19 1a 1b 1c 1d 1e 1f 20 21     .............. !
     668:	22 23 24 25 26 27 28 29 2a 2b 2c 2d 2e 2f 30 31     "#$%&'()*+,-./01
     678:	32 33 34 35 36 37 38 39 3a 3b 3c 3d 3e 3f 40 41     23456789:;<=>?@A
     688:	42 43 44 45 46 47 48 49 4a 4b 4c 4d 4e 4f 50 51     BCDEFGHIJKLMNOPQ
     698:	52 53 54 55 56 57 58 59 5a 5b 5c 5d 5e 5f 60 61     RSTUVWXYZ[\]^_`a
     6a8:	62 63 00 01 02 03 04 05 06 07 08 09 0a 0b 0c 0d     bc..............
     6b8:	0e 0f 10 11 12 13 14 15 16 17 18 19 1a 1b 1c 1d     ................
     6c8:	1e 1f 20 21 22 23 24 25 26 27 28 29 2a 2b 2c 2d     .. !"#$%&'()*+,-
     6d8:	2e 2f 30 31 32 33 34 35 36 37 38 39 3a 3b 3c 3d     ./0123456789:;<=
     6e8:	3e 3f 40 41 42 43 44 45 46 47 48 49 4a 4b 4c 4d     >?@ABCDEFGHIJKLM
     6f8:	4e 4f 50 51 52 53 54 55 56 57 58 59 5a 5b 5c 5d     NOPQRSTUVWXYZ[\]
     708:	5e 5f 60 61 62 63 00 01 02 03 04 05 06 07 08 09     ^_`abc..........
     718:	0a 0b 0c 0d 0e 0f 10 11 12 13 14 15 16 17 18 19     ................
     728:	1a 1b 1c 1d 1e 1f 20 21 22 23 24 25 26 27 28 29     ...... !"#$%&'()
     738:	2a 2b 2c 2d 2e 2f 30 31 32 33 34 35 36 37 38 39     *+,-./0123456789
     748:	3a 3b 3c 3d 3e 3f 40 41 42 43 44 45 46 47 48 49     :;<=>?@ABCDEFGHI
     758:	4a 4b 4c 4d 4e 4f 50 51 52 53 54 55 56 57 58 59     JKLMNOPQRSTUVWXY
     768:	5a 5b 5c 5d 5e 5f 60 61 62 63 00 01 02 03 04 05     Z[\]^_`abc......
     778:	06 07 08 09 0a 0b 0c 0d 0e 0f 10 11 12 13 14 15     ................
     788:	16 17 18 19 1a 1b 1c 1d 1e 1f 20 21 22 23 24 25     .......... !"#$%
     798:	26 27 28 29 2a 2b 2c 2d 2e 2f 30 31 32 33 34 35     &'()*+,-./012345
     7a8:	36 37 38 39 3a 3b 3c 3d 3e 3f 40 41 42 43 44 45     6789:;<=>?@ABCDE
     7b8:	46 47 48 49 4a 4b 4c 4d 4e 4f 50 51 52 53 54 55     FGHIJKLMNOPQRSTU
     7c8:	56 57 58 59 5a 5b 5c 5d 5e 5f 60 61 62 63 00 01     VWXYZ[\]^_`abc..
     7d8:	02 03 04 05 06 07 08 09 0a 0b 0c 0d 0e 0f 10 11     ................
     7e8:	12 13 14 15 16 17 18 19 1a 1b 1c 1d 1e 1f 20 21     .............. !
     7f8:	22 23 24 25 26 27 28 29 2a 2b 2c 2d 2e 2f 30 31     "#$%&'()*+,-./01
     808:	32 33 34 35 36 37 38 39 3a 3b 3c 3d 3e 3f 40 41     23456789:;<=>?@A
     818:	42 43 44 45 46 47 48 49 4a 4b 4c 4d 4e 4f 50 51     BCDEFGHIJKLMNOPQ
     828:	52 53 54 55 56 57 58 59 5a 5b 5c 5d 5e 5f 60 61     RSTUVWXYZ[\]^_`a
     838:	62 63 00 01 02 03 04 05 06 07 08 09 0a 0b 0c 0d     bc..............
     848:	0e 0f 10 11 12 13 14 15 16 17 18 19 1a 1b 1c 1d     ................
     858:	1e 1f 20 21 22 23 24 25 26 27 28 29 2a 2b 2c 2d     .. !"#$%&'()*+,-
     868:	2e 2f 30 31 32 33 34 35 36 37 38 39 3a 3b 3c 3d     ./0123456789:;<=
     878:	3e 3f 40 41 42 43 44 45 46 47 48 49 4a 4b 4c 4d     >?@ABCDEFGHIJKLM
     888:	4e 4f 50 51 52 53 54 55 56 57 58 59 5a 5b 5c 5d     NOPQRSTUVWXYZ[\]
     898:	5e 5f 60 61 62 63 00 01 02 03 04 05 06 07 08 09     ^_`abc..........
     8a8:	0a 0b 0c 0d 0e 0f 10 11 12 13 14 15 16 17 18 19     ................
     8b8:	1a 1b 1c 1d 1e 1f 20 21 22 23 24 25 26 27 28 29     ...... !"#$%&'()
     8c8:	2a 2b 2c 2d 2e 2f 30 31 32 33 34 35 36 37 38 39     *+,-./0123456789
     8d8:	3a 3b 3c 3d 3e 3f 40 41 42 43 44 45 46 47 48 49     :;<=>?@ABCDEFGHI
     8e8:	4a 4b 4c 4d 4e 4f 50 51 52 53 54 55 56 57 58 59     JKLMNOPQRSTUVWXY
     8f8:	5a 5b 5c 5d 5e 5f 60 61 62 63 00 01 02 03 04 05     Z[\]^_`abc......
     908:	06 07 08 09 0a 0b 0c 0d 0e 0f 10 11 12 13 14 15     ................
     918:	16 17 18 19 1a 1b 1c 1d 1e 1f 20 21 22 23 24 25     .......... !"#$%
     928:	26 27 28 29 2a 2b 2c 2d 2e 2f 30 31 32 33 34 35     &'()*+,-./012345
     938:	36 37 38 39 3a 3b 3c 3d 3e 3f 40 41 42 43 44 45     6789:;<=>?@ABCDE
     948:	46 47 48 49 4a 4b 4c 4d 4e 4f 50 51 52 53 54 55     FGHIJKLMNOPQRSTU
     958:	56 57 58 59 5a 5b 5c 5d 5e 5f 60 61 62 63 00 01     VWXYZ[\]^_`abc..
     968:	02 03 04 05 06 07 08 09 0a 0b 0c 0d 0e 0f 10 11     ................
     978:	12 13 14 15 16 17 18 19 1a 1b 1c 1d 1e 1f 20 21     .............. !
     988:	22 23 24 25 26 27 28 29 2a 2b 2c 2d 2e 2f 30 31     "#$%&'()*+,-./01
     998:	32 33 34 35 36 37 38 39 3a 3b 3c 3d 3e 3f 40 41     23456789:;<=>?@A
     9a8:	42 43 44 45 46 47 48 49 4a 4b 4c 4d 4e 4f 50 51     BCDEFGHIJKLMNOPQ
     9b8:	52 53 54 55 56 57 58 59 5a 5b 5c 5d 5e 5f 60 61     RSTUVWXYZ[\]^_`a
     9c8:	62 63 00 01 02 03 04 05 06 07 08 09 0a 0b 0c 0d     bc..............
     9d8:	0e 0f 10 11 12 13 14 15 16 17 18 19 1a 1b 1c 1d     ................
     9e8:	1e 1f 20 21 22 23 24 25 26 27 28 29 2a 2b 2c 2d     .. !"#$%&'()*+,-
     9f8:	2e 2f 30 31 32 33 34 35 36 37 38 39 3a 3b 3c 3d     ./0123456789:;<=
     a08:	3e 3f 40 41 42 43 44 45 46 47 48 49 4a 4b 4c 4d     >?@ABCDEFGHIJKLM
     a18:	4e 4f 50 51 52 53 54 55 56 57 58 59 5a 5b 5c 5d     NOPQRSTUVWXYZ[\]
     a28:	5e 5f 60 61 62 63 00 01 02 03 04 05 06 07 08 09     ^_`abc..........
     a38:	0a 0b 0c 0d 0e 0f 10 11 12 13 14 15 16 17 18 19     ................
     a48:	1a 1b 1c 1d 1e 1f 20 21 22 23 24 25 26 27 28 29     ...... !"#$%&'()
     a58:	2a 2b 2c 2d 2e 2f 30 31 32 33 34 35 36 37 38 39     *+,-./0123456789
     a68:	3a 3b 3c 3d 3e 3f 40 41 42 43 44 45 46 47 48 49     :;<=>?@ABCDEFGHI
     a78:	4a 4b 4c 4d 4e 4f 50 51 52 53 54 55 56 57 58 59     JKLMNOPQRSTUVWXY
     a88:	5a 5b 5c 5d 5e 5f 60 61 62 63 00 01 02 03 04 05     Z[\]^_`abc......
     a98:	06 07 08 09 0a 0b 0c 0d 0e 0f 10 11 12 13 14 15     ................
     aa8:	16 17 18 19 1a 1b 1c 1d 1e 1f 20 21 22 23 24 25     .......... !"#$%
     ab8:	26 27 28 29 2a 2b 2c 2d 2e 2f 30 31 32 33 34 35     &'()*+,-./012345
     ac8:	36 37 38 39 3a 3b 3c 3d 3e 3f 40 41 42 43 44 45     6789:;<=>?@ABCDE
     ad8:	46 47 48 49 4a 4b 4c 4d 4e 4f 50 51 52 53 54 55     FGHIJKLMNOPQRSTU
     ae8:	56 57 58 59 5a 5b 5c 5d 5e 5f 60 61 62 63 00 01     VWXYZ[\]^_`abc..
     af8:	02 03 04 05 06 07 08 09 0a 0b 0c 0d 0e 0f 10 11     ................
     b08:	12 13 14 15 16 17 18 19 1a 1b 1c 1d 1e 1f 20 21     .............. !
     b18:	22 23 24 25 26 27 28 29 2a 2b 2c 2d 2e 2f 30 31     "#$%&'()*+,-./01
     b28:	32 33 34 35 36 37 38 39 3a 3b 3c 3d 3e 3f 40 41     23456789:;<=>?@A
     b38:	42 43 44 45 46 47 48 49 4a 4b 4c 4d 4e 4f 50 51     BCDEFGHIJKLMNOPQ
     b48:	52 53 54 55 56 57 58 59 5a 5b 5c 5d 5e 5f 60 61     RSTUVWXYZ[\]^_`a
     b58:	62 63 00 01 02 03 04 05 06 07 08 09 0a 0b 0c 0d     bc..............
     b68:	0e 0f 10 11 12 13 14 15 16 17 18 19 1a 1b 1c 1d     ................
     b78:	1e 1f 20 21 22 23 24 25 26 27 28 29 2a 2b 2c 2d     .. !"#$%&'()*+,-
     b88:	2e 2f 30 31 32 33 34 35 36 37 38 39 3a 3b 3c 3d     ./0123456789:;<=
     b98:	3e 3f 40 41 42 43 44 45 46 47 48 49 4a 4b 4c 4d     >?@ABCDEFGHIJKLM
     ba8:	4e 4f 50 51 52 53 54 55 56 57 58 59 5a 5b 5c 5d     NOPQRSTUVWXYZ[\]
     bb8:	5e 5f 60 61 62 63 00 01 02 03 04 05 06 07 08 09     ^_`abc..........
     bc8:	0a 0b 0c 0d 0e 0f 10 11 12 13 14 15 16 17 18 19     ................
     bd8:	1a 1b 1c 1d 1e 1f 20 21 22 23 24 25 26 27 28 29     ...... !"#$%&'()
     be8:	2a 2b 2c 2d 2e 2f 30 31 32 33 34 35 36 37 38 39     *+,-./0123456789
     bf8:	3a 3b 3c 3d 3e 3f 40 41 42 43 44 45 46 47 48 49     :;<=>?@ABCDEFGHI
     c08:	4a 4b 4c 4d 4e 4f 50 51 52 53 54 55 56 57 58 59     JKLMNOPQRSTUVWXY
     c18:	5a 5b 5c 5d 5e 5f 60 61 62 63 00 01 02 03 04 05     Z[\]^_`abc......
     c28:	06 07 08 09 0a 0b 0c 0d 0e 0f 10 11 12 13 14 15     ................
     c38:	16 17 18 19 1a 1b 1c 1d 1e 1f 20 21 22 23 24 25     .......... !"#$%
     c48:	26 27 28 29 2a 2b 2c 2d 2e 2f 30 31 32 33 34 35     &'()*+,-./012345
     c58:	36 37 38 39 3a 3b 3c 3d 3e 3f 40 41 42 43 44 45     6789:;<=>?@ABCDE
     c68:	46 47 48 49 4a 4b 4c 4d 4e 4f 50 51 52 53 54 55     FGHIJKLMNOPQRSTU
     c78:	56 57 58 59 5a 5b 5c 5d 5e 5f 60 61 62 63 00 01     VWXYZ[\]^_`abc..
     c88:	02 03 04 05 06 07 08 09 0a 0b 0c 0d 0e 0f 10 11     ................
     c98:	12 13 14 15 16 17 18 19 1a 1b 1c 1d 1e 1f 20 21     .............. !
     ca8:	22 23 24 25 26 27 28 29 2a 2b 2c 2d 2e 2f 30 31     "#$%&'()*+,-./01
     cb8:	32 33 34 35 36 37 38 39 3a 3b 3c 3d 3e 3f 40 41     23456789:;<=>?@A
     cc8:	42 43 44 45 46 47 48 49 4a 4b 4c 4d 4e 4f 50 51     BCDEFGHIJKLMNOPQ
     cd8:	52 53 54 55 56 57 58 59 5a 5b 5c 5d 5e 5f 60 61     RSTUVWXYZ[\]^_`a
     ce8:	62 63 00 01 02 03 04 05 06 07 08 09 0a 0b 0c 0d     bc..............
     cf8:	0e 0f 10 11 12 13 14 15 16 17 18 19 1a 1b 1c 1d     ................
     d08:	1e 1f 20 21 22 23 24 25 26 27 28 29 2a 2b 2c 2d     .. !"#$%&'()*+,-
     d18:	2e 2f 30 31 32 33 34 35 36 37 38 39 3a 3b 3c 3d     ./0123456789:;<=
     d28:	3e 3f 40 41 42 43 44 45 46 47 48 49 4a 4b 4c 4d     >?@ABCDEFGHIJKLM
     d38:	4e 4f 50 51 52 53 54 55 56 57 58 59 5a 5b 5c 5d     NOPQRSTUVWXYZ[\]
     d48:	5e 5f 60 61 62 63 00 01 02 03 04 05 06 07 08 09     ^_`abc..........
     d58:	0a 0b 0c 0d 0e 0f 10 11 12 13 14 15 16 17 18 19     ................
     d68:	1a 1b 1c 1d 1e 1f 20 21 22 23 24 25 26 27 28 29     ...... !"#$%&'()
     d78:	2a 2b 2c 2d 2e 2f 30 31 32 33 34 35 36 37 38 39     *+,-./0123456789
     d88:	3a 3b 3c 3d 3e 3f 40 41 42 43 44 45 46 47 48 49     :;<=>?@ABCDEFGHI
     d98:	4a 4b 4c 4d 4e 4f 50 51 52 53 54 55 56 57 58 59     JKLMNOPQRSTUVWXY
     da8:	5a 5b 5c 5d 5e 5f 60 61 62 63 00 01 02 03 04 05     Z[\]^_`abc......
     db8:	06 07 08 09 0a 0b 0c 0d 0e 0f 10 11 12 13 14 15     ................
     dc8:	16 17 18 19 1a 1b 1c 1d 1e 1f 20 21 22 23 24 25     .......... !"#$%
     dd8:	26 27 28 29 2a 2b 2c 2d 2e 2f 30 31 32 33 34 35     &'()*+,-./012345
     de8:	36 37 38 39 3a 3b 3c 3d 3e 3f 40 41 42 43 44 45     6789:;<=>?@ABCDE
     df8:	46 47 48 49 4a 4b 4c 4d 4e 4f 50 51 52 53 54 55     FGHIJKLMNOPQRSTU
     e08:	56 57 58 59 5a 5b 5c 5d 5e 5f 60 61 62 63 00 01     VWXYZ[\]^_`abc..
     e18:	02 03 04 05 06 07 08 09 0a 0b 0c 0d 0e 0f 10 11     ................
     e28:	12 13 14 15 16 17 18 19 1a 1b 1c 1d 1e 1f 20 21     .............. !
     e38:	22 23 24 25 26 27 28 29 2a 2b 2c 2d 2e 2f 30 31     "#$%&'()*+,-./01
     e48:	32 33 34 35 36 37 38 39 3a 3b 3c 3d 3e 3f 40 41     23456789:;<=>?@A
     e58:	42 43 44 45 46 47 48 49 4a 4b 4c 4d 4e 4f 50 51     BCDEFGHIJKLMNOPQ
     e68:	52 53 54 55 56 57 58 59 5a 5b 5c 5d 5e 5f 60 61     RSTUVWXYZ[\]^_`a
     e78:	62 63 00 01 02 03 04 05 06 07 08 09 0a 0b 0c 0d     bc..............
     e88:	0e 0f 10 11 12 13 14 15 16 17 18 19 1a 1b 1c 1d     ................
     e98:	1e 1f 20 21 22 23 24 25 26 27 28 29 2a 2b 2c 2d     .. !"#$%&'()*+,-
     ea8:	2e 2f 30 31 32 33 34 35 36 37 38 39 3a 3b 3c 3d     ./0123456789:;<=
     eb8:	3e 3f 40 41 42 43 44 45 46 47 48 49 4a 4b 4c 4d     >?@ABCDEFGHIJKLM
     ec8:	4e 4f 50 51 52 53 54 55 56 57 58 59 5a 5b 5c 5d     NOPQRSTUVWXYZ[\]
     ed8:	5e 5f 60 61 62 63 00 01 02 03 04 05 06 07 08 09     ^_`abc..........
     ee8:	0a 0b 0c 0d 0e 0f 10 11 12 13 14 15 16 17 18 19     ................
     ef8:	1a 1b 1c 1d 1e 1f 20 21 22 23 24 25 26 27 28 29     ...... !"#$%&'()
     f08:	2a 2b 2c 2d 2e 2f 30 31 32 33 34 35 36 37 38 39     *+,-./0123456789
     f18:	3a 3b 3c 3d 3e 3f 40 41 42 43 44 45 46 47 48 49     :;<=>?@ABCDEFGHI
     f28:	4a 4b 4c 4d 4e 4f 50 51 52 53 54 55 56 57 58 59     JKLMNOPQRSTUVWXY
     f38:	5a 5b 5c 5d 5e 5f 60 61 62 63 00 01 02 03 04 05     Z[\]^_`abc......
     f48:	06 07 08 09 0a 0b 0c 0d 0e 0f 10 11 12 13 14 15     ................
     f58:	16 17 18 19 1a 1b 1c 1d 1e 1f 20 21 22 23 24 25     .......... !"#$%
     f68:	26 27 28 29 2a 2b 2c 2d 2e 2f 30 31 32 33 34 35     &'()*+,-./012345
     f78:	36 37 38 39 3a 3b 3c 3d 3e 3f 40 41 42 43 44 45     6789:;<=>?@ABCDE
     f88:	46 47 48 49 4a 4b 4c 4d 4e 4f 50 51 52 53 54 55     FGHIJKLMNOPQRSTU
     f98:	56 57 58 59 5a 5b 5c 5d 5e 5f 60 61 62 63 00 01     VWXYZ[\]^_`abc..
     fa8:	02 03 04 05 06 07 08 09 0a 0b 0c 0d 0e 0f 10 11     ................
     fb8:	12 13 14 15 16 17 18 19 1a 1b 1c 1d 1e 1f 20 21     .............. !
     fc8:	22 23 24 25 26 27 28 29 2a 2b 2c 2d 2e 2f 30 31     "#$%&'()*+,-./01
     fd8:	32 33 34 35 36 37 38 39 3a 3b 3c 3d 3e 3f 40 41     23456789:;<=>?@A
     fe8:	42 43 44 45 46 47 48 49 4a 4b 4c 4d 4e 4f 50 51     BCDEFGHIJKLMNOPQ
     ff8:	52 53 54 55 56 57 58 59 5a 5b 5c 5d 5e 5f 60 61     RSTUVWXYZ[\]^_`a
    1008:	62 63 00 01 02 03 04 05 06 07 08 09 0a 0b 0c 0d     bc..............
    1018:	0e 0f 10 11 12 13 14 15 16 17 18 19 1a 1b 1c 1d     ................
    1028:	1e 1f 20 21 22 23 24 25 26 27 28 29 2a 2b 2c 2d     .. !"#$%&'()*+,-
    1038:	2e 2f 30 31 32 33 34 35 36 37 38 39 3a 3b 3c 3d     ./0123456789:;<=
    1048:	3e 3f 40 41 42 43 44 45 46 47 48 49 4a 4b 4c 4d     >?@ABCDEFGHIJKLM
    1058:	4e 4f 50 51 52 53 54 55 56 57 58 59 5a 5b 5c 5d     NOPQRSTUVWXYZ[\]
    1068:	5e 5f 60 61 62 63 00 01 02 03 04 05 06 07 08 09     ^_`abc..........
    1078:	0a 0b 0c 0d 0e 0f 10 11 12 13 14 15 16 17 18 19     ................
    1088:	1a 1b 1c 1d 1e 1f 20 21 22 23 24 25 26 27 28 29     ...... !"#$%&'()
    1098:	2a 2b 2c 2d 2e 2f 30 31 32 33 34 35 36 37 38 39     *+,-./0123456789
    10a8:	3a 3b 3c 3d 3e 3f 40 41 42 43 44 45 46 47 48 49     :;<=>?@ABCDEFGHI
    10b8:	4a 4b 4c 4d 4e 4f 50 51 52 53 54 55 56 57 58 59     JKLMNOPQRSTUVWXY
    10c8:	5a 5b 5c 5d 5e 5f 60 61 62 63 00 01 02 03 04 05     Z[\]^_`abc......
    10d8:	06 07 08 09 0a 0b 0c 0d 0e 0f 10 11 12 13 14 15     ................
    10e8:	16 17 18 19 1a 1b 1c 1d 1e 1f 20 21 22 23 24 25     .......... !"#$%
    10f8:	26 27 28 29 2a 2b 2c 2d 2e 2f 30 31 32 33 34 35     &'()*+,-./012345
    1108:	36 37 38 39 3a 3b 3c 3d 3e 3f 40 41 42 43 44 45     6789:;<=>?@ABCDE
    1118:	46 47 48 49 4a 4b 4c 4d 4e 4f 50 51 52 53 54 55     FGHIJKLMNOPQRSTU
    1128:	56 57 58 59 5a 5b 5c 5d 5e 5f 60 61 62 63 00 01     VWXYZ[\]^_`abc..
    1138:	02 03 04 05 06 07 08 09 0a 0b 0c 0d 0e 0f 10 11     ................
    1148:	12 13 14 15 16 17 18 19 1a 1b 1c 1d 1e 1f 20 21     .............. !
    1158:	22 23 24 25 26 27 28 29 2a 2b 2c 2d 2e 2f 30 31     "#$%&'()*+,-./01
    1168:	32 33 34 35 36 37 38 39 3a 3b 3c 3d 3e 3f 40 41     23456789:;<=>?@A
    1178:	42 43 44 45 46 47 48 49 4a 4b 4c 4d 4e 4f 50 51     BCDEFGHIJKLMNOPQ
    1188:	52 53 54 55 56 57 58 59 5a 5b 5c 5d 5e 5f 60 61     RSTUVWXYZ[\]^_`a
    1198:	62 63 00 01 02 03 04 05 06 07 08 09 0a 0b 0c 0d     bc..............
    11a8:	0e 0f 10 11 12 13 14 15 16 17 18 19 1a 1b 1c 1d     ................
    11b8:	1e 1f 20 21 22 23 24 25 26 27 28 29 2a 2b 2c 2d     .. !"#$%&'()*+,-
    11c8:	2e 2f 30 31 32 33 34 35 36 37 38 39 3a 3b 3c 3d     ./0123456789:;<=
    11d8:	3e 3f 40 41 42 43 44 45 46 47 48 49 4a 4b 4c 4d     >?@ABCDEFGHIJKLM
    11e8:	4e 4f 50 51 52 53 54 55 56 57 58 59 5a 5b 5c 5d     NOPQRSTUVWXYZ[\]
    11f8:	5e 5f 60 61 62 63 00 01 02 03 04 05 06 07 08 09     ^_`abc..........
    1208:	0a 0b 0c 0d 0e 0f 10 11 12 13 14 15 16 17 18 19     ................
    1218:	1a 1b 1c 1d 1e 1f 20 21 22 23 24 25 26 27 28 29     ...... !"#$%&'()
    1228:	2a 2b 2c 2d 2e 2f 30 31 32 33 34 35 36 37 38 39     *+,-./0123456789
    1238:	3a 3b 3c 3d 3e 3f 40 41 42 43 44 45 46 47 48 49     :;<=>?@ABCDEFGHI
    1248:	4a 4b 4c 4d 4e 4f 50 51 52 53 54 55 56 57 58 59     JKLMNOPQRSTUVWXY
    1258:	5a 5b 5c 5d 5e 5f 60 61 62 63 00 01 02 03 04 05     Z[\]^_`abc......
    1268:	06 07 08 09 0a 0b 0c 0d 0e 0f 10 11 12 13 14 15     ................
    1278:	16 17 18 19 1a 1b 1c 1d 1e 1f 20 21 22 23 24 25     .......... !"#$%
    1288:	26 27 28 29 2a 2b 2c 2d 2e 2f 30 31 32 33 34 35     &'()*+,-./012345
    1298:	36 37 38 39 3a 3b 3c 3d 3e 3f 40 41 42 43 44 45     6789:;<=>?@ABCDE
    12a8:	46 47 48 49 4a 4b 4c 4d 4e 4f 50 51 52 53 54 55     FGHIJKLMNOPQRSTU
    12b8:	56 57 58 59 5a 5b 5c 5d 5e 5f 60 61 62 63 00 01     VWXYZ[\]^_`abc..
    12c8:	02 03 04 05 06 07 08 09 0a 0b 0c 0d 0e 0f 10 11     ................
    12d8:	12 13 14 15 16 17 18 19 1a 1b 1c 1d 1e 1f 20 21     .............. !
    12e8:	22 23 24 25 26 27 28 29 2a 2b 2c 2d 2e 2f 30 31     "#$%&'()*+,-./01
    12f8:	32 33 34 35 36 37 38 39 3a 3b 3c 3d 3e 3f 40 41     23456789:;<=>?@A
    1308:	42 43 44 45 46 47 48 49 4a 4b 4c 4d 4e 4f 50 51     BCDEFGHIJKLMNOPQ
    1318:	52 53 54 55 56 57 58 59 5a 5b 5c 5d 5e 5f 60 61     RSTUVWXYZ[\]^_`a
    1328:	62 63 00 01 02 03 04 05 06 07 08 09 0a 0b 0c 0d     bc..............
    1338:	0e 0f 10 11 12 13 14 15 16 17 18 19 1a 1b 1c 1d     ................
    1348:	1e 1f 20 21 22 23 24 25 26 27 28 29 2a 2b 2c 2d     .. !"#$%&'()*+,-
    1358:	2e 2f 30 31 32 33 34 35 36 37 38 39 3a 3b 3c 3d     ./0123456789:;<=
    1368:	3e 3f 40 41 42 43 44 45 46 47 48 49 4a 4b 4c 4d     >?@ABCDEFGHIJKLM
    1378:	4e 4f 50 51 52 53 54 55 56 57 58 59 5a 5b 5c 5d     NOPQRSTUVWXYZ[\]
    1388:	5e 5f 60 61 62 63 00 01 02 03 04 05 06 07 08 09     ^_`abc..........
    1398:	0a 0b 0c 0d 0e 0f 10 11 12 13 14 15 16 17 18 19     ................
    13a8:	1a 1b 1c 1d 1e 1f 20 21 22 23 24 25 26 27 28 29     ...... !"#$%&'()
    13b8:	2a 2b 2c 2d 2e 2f 30 31 32 33 34 35 36 37 38 39     *+,-./0123456789
    13c8:	3a 3b 3c 3d 3e 3f 40 41 42 43 44 45 46 47 48 49     :;<=>?@ABCDEFGHI
    13d8:	4a 4b 4c 4d 4e 4f 50 51 52 53 54 55 56 57 58 59     JKLMNOPQRSTUVWXY
    13e8:	5a 5b 5c 5d 5e 5f 60 61 62 63 00 01 02 03 04 05     Z[\]^_`abc......
    13f8:	06 07 08 09 0a 0b 0c 0d 0e 0f 10 11 12 13 14 15     ................
    1408:	16 17 18 19 1a 1b 1c 1d 1e 1f 20 21 22 23 24 25     .......... !"#$%
    1418:	26 27 28 29 2a 2b 2c 2d 2e 2f 30 31 32 33 34 35     &'()*+,-./012345
    1428:	36 37 38 39 3a 3b 3c 3d 3e 3f 40 41 42 43 44 45     6789:;<=>?@ABCDE
    1438:	46 47 48 49 4a 4b 4c 4d 4e 4f 50 51 52 53 54 55     FGHIJKLMNOPQRSTU
    1448:	56 57 58 59 5a 5b 5c 5d 5e 5f 60 61 62 63 00 01     VWXYZ[\]^_`abc..
    1458:	02 03 04 05 06 07 08 09 0a 0b 0c 0d 0e 0f 10 11     ................
    1468:	12 13 14 15 16 17 18 19 1a 1b 1c 1d 1e 1f 20 21     .............. !
    1478:	22 23 24 25 26 27 28 29 2a 2b 2c 2d 2e 2f 30 31     "#$%&'()*+,-./01
    1488:	32 33 34 35 36 37 38 39 3a 3b 3c 3d 3e 3f 40 41     23456789:;<=>?@A
    1498:	42 43 44 45 46 47 48 49 4a 4b 4c 4d 4e 4f 50 51     BCDEFGHIJKLMNOPQ
    14a8:	52 53 54 55 56 57 58 59 5a 5b 5c 5d 5e 5f 60 61     RSTUVWXYZ[\]^_`a
    14b8:	62 63 00 01 02 03 04 05 06 07 08 09 0a 0b 0c 0d     bc..............
    14c8:	0e 0f 10 11 12 13 14 15 16 17 18 19 1a 1b 1c 1d     ................
    14d8:	1e 1f 20 21 22 23 24 25 26 27 28 29 2a 2b 2c 2d     .. !"#$%&'()*+,-
    14e8:	2e 2f 30 31 32 33 34 35 36 37 38 39 3a 3b 3c 3d     ./0123456789:;<=
    14f8:	3e 3f 40 41 42 43 44 45 46 47 48 49 4a 4b 4c 4d     >?@ABCDEFGHIJKLM
    1508:	4e 4f 50 51 52 53 54 55 56 57 58 59 5a 5b 5c 5d     NOPQRSTUVWXYZ[\]
    1518:	5e 5f 60 61 62 63 00 01 02 03 04 05 06 07 08 09     ^_`abc..........
    1528:	0a 0b 0c 0d 0e 0f 10 11 12 13 14 15 16 17 18 19     ................
    1538:	1a 1b 1c 1d 1e 1f 20 21 22 23 24 25 26 27 28 29     ...... !"#$%&'()
    1548:	2a 2b 2c 2d 2e 2f 30 31 32 33 34 35 36 37 38 39     *+,-./0123456789
    1558:	3a 3b 3c 3d 3e 3f 40 41 42 43 44 45 46 47 48 49     :;<=>?@ABCDEFGHI
    1568:	4a 4b 4c 4d 4e 4f 50 51 52 53 54 55 56 57 58 59     JKLMNOPQRSTUVWXY
    1578:	5a 5b 5c 5d 5e 5f 60 61 62 63 00 01 02 03 04 05     Z[\]^_`abc......
    1588:	06 07 08 09 0a 0b 0c 0d 0e 0f 10 11 12 13 14 15     ................
    1598:	16 17 18 19 1a 1b 1c 1d 1e 1f 20 21 22 23 24 25     .......... !"#$%
    15a8:	26 27 28 29 2a 2b 2c 2d 2e 2f 30 31 32 33 34 35     &'()*+,-./012345
    15b8:	36 37 38 39 3a 3b 3c 3d 3e 3f 40 41 42 43 44 45     6789:;<=>?@ABCDE
    15c8:	46 47 48 49 4a 4b 4c 4d 4e 4f 50 51 52 53 54 55     FGHIJKLMNOPQRSTU
    15d8:	56 57 58 59 5a 5b 5c 5d 5e 5f 60 61 62 63 00 01     VWXYZ[\]^_`abc..
    15e8:	02 03                                               ..

000015ea <__ctors_end>:
    15ea:	11 24       	eor	r1, r1
    15ec:	1f be       	out	0x3f, r1	; 63
    15ee:	cf ef       	ldi	r28, 0xFF	; 255
    15f0:	d8 e0       	ldi	r29, 0x08	; 8
    15f2:	de bf       	out	0x3e, r29	; 62
    15f4:	cd bf       	out	0x3d, r28	; 61

000015f6 <__do_clear_bss>:
    15f6:	21 e0       	ldi	r18, 0x01	; 1
    15f8:	a0 e0       	ldi	r26, 0x00	; 0
    15fa:	b1 e0       	ldi	r27, 0x01	; 1
    15fc:	01 c0       	rjmp	.+2      	; 0x1600 <.do_clear_bss_start>

000015fe <.do_clear_bss_loop>:
    15fe:	1d 92       	st	X+, r1

00001600 <.do_clear_bss_start>:
    1600:	a1 31       	cpi	r26, 0x11	; 17
    1602:	b2 07       	cpc	r27, r18
    1604:	e1 f7       	brne	.-8      	; 0x15fe <.do_clear_bss_loop>
    1606:	0e 94 09 0b 	call	0x1612	; 0x1612 <main>
    160a:	0c 94 27 0c 	jmp	0x184e	; 0x184e <_exit>

0000160e <__bad_interrupt>:
    160e:	0c 94 00 00 	jmp	0	; 0x0 <__vectors>

00001612 <main>:
	0, 1, 2, 3, 4, 5, 6, 7, 8, 9, 10, 11, 12, 13, 14, 15, 16, 17, 18, 19, 20, 21, 22, 23, 24, 25, 26, 27, 28, 29, 30, 31, 32, 33, 34, 35, 36, 37, 38, 39, 40, 41, 42, 43, 44, 45, 46, 47, 48, 49, 50, 51, 52, 53, 54, 55, 56, 57, 58, 59, 60, 61, 62, 63, 64, 65, 66, 67, 68, 69, 70, 71, 72, 73, 74, 75, 76, 77, 78, 79, 80, 81, 82, 83, 84, 85, 86, 87, 88, 89, 90, 91, 92, 93, 94, 95, 96, 97, 98, 99,
	0, 1, 2, 3
};
int main(void){
	int b;
	DDRB = 0b11111111;
    1612:	8f ef       	ldi	r24, 0xFF	; 255
    1614:	84 b9       	out	0x04, r24	; 4
	DDRC = 0b11011111;
    1616:	8f ed       	ldi	r24, 0xDF	; 223
    1618:	87 b9       	out	0x07, r24	; 7
	DDRD = 0b11111110;
    161a:	8e ef       	ldi	r24, 0xFE	; 254
    161c:	8a b9       	out	0x0a, r24	; 10
	
	SEQUENCIA = 0;
    161e:	10 92 02 01 	sts	0x0102, r1
	NEXTB = 0b10101011;
    1622:	2b ea       	ldi	r18, 0xAB	; 171
    1624:	20 93 0e 01 	sts	0x010E, r18
	NEXTC = 0b00000010;
    1628:	92 e0       	ldi	r25, 0x02	; 2
    162a:	90 93 03 01 	sts	0x0103, r25
	NEXTD = 0b01010000;//todos apagados
    162e:	80 e5       	ldi	r24, 0x50	; 80
    1630:	80 93 04 01 	sts	0x0104, r24
	
	PORTB = NEXTB;
    1634:	25 b9       	out	0x05, r18	; 5
	PORTC = NEXTC;
    1636:	98 b9       	out	0x08, r25	; 8
	PORTD = NEXTD;
    1638:	8b b9       	out	0x0b, r24	; 11
	
	TCCR0B = 0b00000011;//SRC = CLK/64 //TCCR0 para atmega 8
    163a:	83 e0       	ldi	r24, 0x03	; 3
    163c:	85 bd       	out	0x25, r24	; 37
	TCNT0 = 0;
    163e:	16 bc       	out	0x26, r1	; 38
	TIMSK0 = 0b00000001; // TIMSK para atmega 8
    1640:	81 e0       	ldi	r24, 0x01	; 1
    1642:	80 93 6e 00 	sts	0x006E, r24
	sei();
    1646:	78 94       	sei
    1648:	a5 e0       	ldi	r26, 0x05	; 5
    164a:	b1 e0       	ldi	r27, 0x01	; 1
    164c:	82 e0       	ldi	r24, 0x02	; 2
    164e:	90 e0       	ldi	r25, 0x00	; 0
	
	for(b=0;b<8;b++){
		BUFFER[b] = pgm_read_byte(&(ANIMACAO[(unsigned)b+2]));
    1650:	fc 01       	movw	r30, r24
    1652:	e8 59       	subi	r30, 0x98	; 152
    1654:	ff 4f       	sbci	r31, 0xFF	; 255
    1656:	e4 91       	lpm	r30, Z
    1658:	ed 93       	st	X+, r30
    165a:	01 96       	adiw	r24, 0x01	; 1
	TCCR0B = 0b00000011;//SRC = CLK/64 //TCCR0 para atmega 8
	TCNT0 = 0;
	TIMSK0 = 0b00000001; // TIMSK para atmega 8
	sei();
	
	for(b=0;b<8;b++){
    165c:	8a 30       	cpi	r24, 0x0A	; 10
    165e:	91 05       	cpc	r25, r1
    1660:	b9 f7       	brne	.-18     	; 0x1650 <main+0x3e>
		BUFFER[b] = pgm_read_byte(&(ANIMACAO[(unsigned)b+2]));
	}
	TAMANHO = pgm_read_byte(&(ANIMACAO[0])) | (pgm_read_byte(&(ANIMACAO[1]))<<8) ;
    1662:	e8 e6       	ldi	r30, 0x68	; 104
    1664:	f0 e0       	ldi	r31, 0x00	; 0
    1666:	24 91       	lpm	r18, Z
    1668:	e9 e6       	ldi	r30, 0x69	; 105
    166a:	f0 e0       	ldi	r31, 0x00	; 0
    166c:	e4 91       	lpm	r30, Z
    166e:	9e 2f       	mov	r25, r30
    1670:	80 e0       	ldi	r24, 0x00	; 0
    1672:	82 2b       	or	r24, r18
    1674:	90 93 10 01 	sts	0x0110, r25
    1678:	80 93 0f 01 	sts	0x010F, r24
	if(TAMANHO>MAX_TAMANHO)TAMANHO = MAX_TAMANHO;
    167c:	81 3b       	cpi	r24, 0xB1	; 177
    167e:	92 40       	sbci	r25, 0x02	; 2
    1680:	30 f0       	brcs	.+12     	; 0x168e <main+0x7c>
    1682:	80 eb       	ldi	r24, 0xB0	; 176
    1684:	92 e0       	ldi	r25, 0x02	; 2
    1686:	90 93 10 01 	sts	0x0110, r25
    168a:	80 93 0f 01 	sts	0x010F, r24
	FRAME = 1;
    168e:	81 e0       	ldi	r24, 0x01	; 1
    1690:	90 e0       	ldi	r25, 0x00	; 0
    1692:	90 93 01 01 	sts	0x0101, r25
    1696:	80 93 00 01 	sts	0x0100, r24
	#else
		//round up by default
		__ticks_dc = (uint32_t)(ceil(fabs(__tmp)));
	#endif

	__builtin_avr_delay_cycles(__ticks_dc);
    169a:	8f ec       	ldi	r24, 0xCF	; 207
    169c:	97 e0       	ldi	r25, 0x07	; 7
    169e:	01 97       	sbiw	r24, 0x01	; 1
    16a0:	f1 f7       	brne	.-4      	; 0x169e <main+0x8c>
    16a2:	00 c0       	rjmp	.+0      	; 0x16a4 <main+0x92>
    16a4:	00 00       	nop
    16a6:	f9 cf       	rjmp	.-14     	; 0x169a <main+0x88>

000016a8 <__vector_16>:
	
	while(1){
		_delay_ms(1);
	}
}
ISR(TIMER0_OVF_vect){
    16a8:	1f 92       	push	r1
    16aa:	0f 92       	push	r0
    16ac:	0f b6       	in	r0, 0x3f	; 63
    16ae:	0f 92       	push	r0
    16b0:	11 24       	eor	r1, r1
    16b2:	2f 93       	push	r18
    16b4:	3f 93       	push	r19
    16b6:	8f 93       	push	r24
    16b8:	9f 93       	push	r25
    16ba:	af 93       	push	r26
    16bc:	bf 93       	push	r27
    16be:	ef 93       	push	r30
    16c0:	ff 93       	push	r31
	short a, b;
	PORTB = NEXTB;
    16c2:	80 91 0e 01 	lds	r24, 0x010E
    16c6:	85 b9       	out	0x05, r24	; 5
	PORTC = NEXTC;
    16c8:	80 91 03 01 	lds	r24, 0x0103
    16cc:	88 b9       	out	0x08, r24	; 8
	PORTD = NEXTD;
    16ce:	80 91 04 01 	lds	r24, 0x0104
    16d2:	8b b9       	out	0x0b, r24	; 11
	TCNT0 = 256-125;//clk/64/125/8 = 125 hz taxa atualização
    16d4:	83 e8       	ldi	r24, 0x83	; 131
    16d6:	86 bd       	out	0x26, r24	; 38
	NEXTB = 0b10101011;
    16d8:	8b ea       	ldi	r24, 0xAB	; 171
    16da:	80 93 0e 01 	sts	0x010E, r24
	NEXTC = 0b00000010;
    16de:	82 e0       	ldi	r24, 0x02	; 2
    16e0:	80 93 03 01 	sts	0x0103, r24
	NEXTD = 0b01010000;//todos apagados
    16e4:	80 e5       	ldi	r24, 0x50	; 80
    16e6:	80 93 04 01 	sts	0x0104, r24
	b = SEQUENCIA%8;
    16ea:	20 91 02 01 	lds	r18, 0x0102
    16ee:	92 2f       	mov	r25, r18
    16f0:	97 70       	andi	r25, 0x07	; 7
    16f2:	e9 2f       	mov	r30, r25
    16f4:	f0 e0       	ldi	r31, 0x00	; 0
	a = BUFFER[b];
    16f6:	eb 5f       	subi	r30, 0xFB	; 251
    16f8:	fe 4f       	sbci	r31, 0xFE	; 254
    16fa:	80 81       	ld	r24, Z
	switch(b){//PB0  PD6  PB7  PD4  PB1  PB3  PB5  PC1
    16fc:	93 30       	cpi	r25, 0x03	; 3
    16fe:	c1 f0       	breq	.+48     	; 0x1730 <__vector_16+0x88>
    1700:	20 f4       	brcc	.+8      	; 0x170a <__vector_16+0x62>
    1702:	91 30       	cpi	r25, 0x01	; 1
    1704:	69 f0       	breq	.+26     	; 0x1720 <__vector_16+0x78>
    1706:	80 f4       	brcc	.+32     	; 0x1728 <__vector_16+0x80>
    1708:	08 c0       	rjmp	.+16     	; 0x171a <__vector_16+0x72>
    170a:	95 30       	cpi	r25, 0x05	; 5
    170c:	c9 f0       	breq	.+50     	; 0x1740 <__vector_16+0x98>
    170e:	a0 f0       	brcs	.+40     	; 0x1738 <__vector_16+0x90>
    1710:	96 30       	cpi	r25, 0x06	; 6
    1712:	d1 f0       	breq	.+52     	; 0x1748 <__vector_16+0xa0>
    1714:	97 30       	cpi	r25, 0x07	; 7
    1716:	f9 f4       	brne	.+62     	; 0x1756 <__vector_16+0xae>
    1718:	1b c0       	rjmp	.+54     	; 0x1750 <__vector_16+0xa8>
		case 0:NEXTC&=0b11111101;break;
    171a:	10 92 03 01 	sts	0x0103, r1
    171e:	1b c0       	rjmp	.+54     	; 0x1756 <__vector_16+0xae>
		case 1:NEXTB&=0b11011111;break;
    1720:	9b e8       	ldi	r25, 0x8B	; 139
    1722:	90 93 0e 01 	sts	0x010E, r25
    1726:	17 c0       	rjmp	.+46     	; 0x1756 <__vector_16+0xae>
		case 2:NEXTB&=0b11110111;break;
    1728:	93 ea       	ldi	r25, 0xA3	; 163
    172a:	90 93 0e 01 	sts	0x010E, r25
    172e:	13 c0       	rjmp	.+38     	; 0x1756 <__vector_16+0xae>
		case 3:NEXTB&=0b11111101;break;
    1730:	99 ea       	ldi	r25, 0xA9	; 169
    1732:	90 93 0e 01 	sts	0x010E, r25
    1736:	0f c0       	rjmp	.+30     	; 0x1756 <__vector_16+0xae>
		case 4:NEXTD&=0b11101111;break;
    1738:	90 e4       	ldi	r25, 0x40	; 64
    173a:	90 93 04 01 	sts	0x0104, r25
    173e:	0b c0       	rjmp	.+22     	; 0x1756 <__vector_16+0xae>
		case 5:NEXTB&=0b01111111;break;
    1740:	9b e2       	ldi	r25, 0x2B	; 43
    1742:	90 93 0e 01 	sts	0x010E, r25
    1746:	07 c0       	rjmp	.+14     	; 0x1756 <__vector_16+0xae>
		case 6:NEXTD&=0b10111111;break;
    1748:	90 e1       	ldi	r25, 0x10	; 16
    174a:	90 93 04 01 	sts	0x0104, r25
    174e:	03 c0       	rjmp	.+6      	; 0x1756 <__vector_16+0xae>
		case 7:NEXTB&=0b11111110;break;
    1750:	9a ea       	ldi	r25, 0xAA	; 170
    1752:	90 93 0e 01 	sts	0x010E, r25
	}
	//PC2  PC0  PB4  PB2  PD3  PB6  PD5  PD7
	if(a&1  )NEXTD|=0b10000000;
    1756:	80 ff       	sbrs	r24, 0
    1758:	05 c0       	rjmp	.+10     	; 0x1764 <__vector_16+0xbc>
    175a:	90 91 04 01 	lds	r25, 0x0104
    175e:	90 68       	ori	r25, 0x80	; 128
    1760:	90 93 04 01 	sts	0x0104, r25
	if(a&2  )NEXTD|=0b00100000;
    1764:	81 ff       	sbrs	r24, 1
    1766:	05 c0       	rjmp	.+10     	; 0x1772 <__vector_16+0xca>
    1768:	90 91 04 01 	lds	r25, 0x0104
    176c:	90 62       	ori	r25, 0x20	; 32
    176e:	90 93 04 01 	sts	0x0104, r25
	if(a&4  )NEXTB|=0b01000000;
    1772:	82 ff       	sbrs	r24, 2
    1774:	05 c0       	rjmp	.+10     	; 0x1780 <__vector_16+0xd8>
    1776:	90 91 0e 01 	lds	r25, 0x010E
    177a:	90 64       	ori	r25, 0x40	; 64
    177c:	90 93 0e 01 	sts	0x010E, r25
	if(a&8  )NEXTD|=0b00001000;
    1780:	83 ff       	sbrs	r24, 3
    1782:	05 c0       	rjmp	.+10     	; 0x178e <__vector_16+0xe6>
    1784:	90 91 04 01 	lds	r25, 0x0104
    1788:	98 60       	ori	r25, 0x08	; 8
    178a:	90 93 04 01 	sts	0x0104, r25
	if(a&16 )NEXTB|=0b00000100;
    178e:	84 ff       	sbrs	r24, 4
    1790:	05 c0       	rjmp	.+10     	; 0x179c <__vector_16+0xf4>
    1792:	90 91 0e 01 	lds	r25, 0x010E
    1796:	94 60       	ori	r25, 0x04	; 4
    1798:	90 93 0e 01 	sts	0x010E, r25
	if(a&32 )NEXTB|=0b00010000;
    179c:	85 ff       	sbrs	r24, 5
    179e:	05 c0       	rjmp	.+10     	; 0x17aa <__vector_16+0x102>
    17a0:	90 91 0e 01 	lds	r25, 0x010E
    17a4:	90 61       	ori	r25, 0x10	; 16
    17a6:	90 93 0e 01 	sts	0x010E, r25
	if(a&64 )NEXTC|=0b00000001;
    17aa:	86 ff       	sbrs	r24, 6
    17ac:	05 c0       	rjmp	.+10     	; 0x17b8 <__vector_16+0x110>
    17ae:	90 91 03 01 	lds	r25, 0x0103
    17b2:	91 60       	ori	r25, 0x01	; 1
    17b4:	90 93 03 01 	sts	0x0103, r25
	if(a&128)NEXTC|=0b00000100;
    17b8:	88 23       	and	r24, r24
    17ba:	2c f4       	brge	.+10     	; 0x17c6 <__vector_16+0x11e>
    17bc:	80 91 03 01 	lds	r24, 0x0103
    17c0:	84 60       	ori	r24, 0x04	; 4
    17c2:	80 93 03 01 	sts	0x0103, r24
	SEQUENCIA++;
    17c6:	2f 5f       	subi	r18, 0xFF	; 255
	if(SEQUENCIA==80){//videos de 12.5 fps
    17c8:	20 35       	cpi	r18, 0x50	; 80
    17ca:	19 f0       	breq	.+6      	; 0x17d2 <__vector_16+0x12a>
	if(a&8  )NEXTD|=0b00001000;
	if(a&16 )NEXTB|=0b00000100;
	if(a&32 )NEXTB|=0b00010000;
	if(a&64 )NEXTC|=0b00000001;
	if(a&128)NEXTC|=0b00000100;
	SEQUENCIA++;
    17cc:	20 93 02 01 	sts	0x0102, r18
    17d0:	31 c0       	rjmp	.+98     	; 0x1834 <__vector_16+0x18c>
	if(SEQUENCIA==80){//videos de 12.5 fps
		SEQUENCIA = 0;
    17d2:	10 92 02 01 	sts	0x0102, r1
		FRAME++;
    17d6:	80 91 00 01 	lds	r24, 0x0100
    17da:	90 91 01 01 	lds	r25, 0x0101
    17de:	01 96       	adiw	r24, 0x01	; 1
    17e0:	90 93 01 01 	sts	0x0101, r25
    17e4:	80 93 00 01 	sts	0x0100, r24
		if(FRAME==TAMANHO)FRAME = 0;
    17e8:	20 91 0f 01 	lds	r18, 0x010F
    17ec:	30 91 10 01 	lds	r19, 0x0110
    17f0:	82 17       	cp	r24, r18
    17f2:	93 07       	cpc	r25, r19
    17f4:	79 f4       	brne	.+30     	; 0x1814 <__vector_16+0x16c>
    17f6:	10 92 01 01 	sts	0x0101, r1
    17fa:	10 92 00 01 	sts	0x0100, r1
    17fe:	0a c0       	rjmp	.+20     	; 0x1814 <__vector_16+0x16c>
		for(b=0;b<8;b++){
			BUFFER[b] = pgm_read_byte(&(ANIMACAO[(unsigned)(b+2+8*FRAME)]));
    1800:	fc 01       	movw	r30, r24
    1802:	e8 59       	subi	r30, 0x98	; 152
    1804:	ff 4f       	sbci	r31, 0xFF	; 255
    1806:	e4 91       	lpm	r30, Z
    1808:	ed 93       	st	X+, r30
    180a:	01 96       	adiw	r24, 0x01	; 1
	SEQUENCIA++;
	if(SEQUENCIA==80){//videos de 12.5 fps
		SEQUENCIA = 0;
		FRAME++;
		if(FRAME==TAMANHO)FRAME = 0;
		for(b=0;b<8;b++){
    180c:	a2 17       	cp	r26, r18
    180e:	b3 07       	cpc	r27, r19
    1810:	b9 f7       	brne	.-18     	; 0x1800 <__vector_16+0x158>
    1812:	10 c0       	rjmp	.+32     	; 0x1834 <__vector_16+0x18c>
			BUFFER[b] = pgm_read_byte(&(ANIMACAO[(unsigned)(b+2+8*FRAME)]));
    1814:	80 91 00 01 	lds	r24, 0x0100
    1818:	90 91 01 01 	lds	r25, 0x0101
    181c:	88 0f       	add	r24, r24
    181e:	99 1f       	adc	r25, r25
    1820:	88 0f       	add	r24, r24
    1822:	99 1f       	adc	r25, r25
    1824:	88 0f       	add	r24, r24
    1826:	99 1f       	adc	r25, r25
    1828:	02 96       	adiw	r24, 0x02	; 2
    182a:	a5 e0       	ldi	r26, 0x05	; 5
    182c:	b1 e0       	ldi	r27, 0x01	; 1
	
	while(1){
		_delay_ms(1);
	}
}
ISR(TIMER0_OVF_vect){
    182e:	2d e0       	ldi	r18, 0x0D	; 13
    1830:	31 e0       	ldi	r19, 0x01	; 1
    1832:	e6 cf       	rjmp	.-52     	; 0x1800 <__vector_16+0x158>
		for(b=0;b<8;b++){
			BUFFER[b] = pgm_read_byte(&(ANIMACAO[(unsigned)(b+2+8*FRAME)]));
		}
	}
	//if(SEQUENCIA==0)POSICAO++;
    1834:	ff 91       	pop	r31
    1836:	ef 91       	pop	r30
    1838:	bf 91       	pop	r27
    183a:	af 91       	pop	r26
    183c:	9f 91       	pop	r25
    183e:	8f 91       	pop	r24
    1840:	3f 91       	pop	r19
    1842:	2f 91       	pop	r18
    1844:	0f 90       	pop	r0
    1846:	0f be       	out	0x3f, r0	; 63
    1848:	0f 90       	pop	r0
    184a:	1f 90       	pop	r1
    184c:	18 95       	reti

0000184e <_exit>:
    184e:	f8 94       	cli

00001850 <__stop_program>:
    1850:	ff cf       	rjmp	.-2      	; 0x1850 <__stop_program>
