
cracha-led.elf:     file format elf32-avr

Sections:
Idx Name          Size      VMA       LMA       File off  Algn
  0 .data         00000000  00800100  000011b2  00001246  2**0
                  CONTENTS, ALLOC, LOAD, DATA
  1 .text         000011b2  00000000  00000000  00000094  2**1
                  CONTENTS, ALLOC, LOAD, READONLY, CODE
  2 .bss          00000105  00800100  00800100  00001246  2**0
                  ALLOC
  3 .stab         00000840  00000000  00000000  00001248  2**2
                  CONTENTS, READONLY, DEBUGGING
  4 .stabstr      00000142  00000000  00000000  00001a88  2**0
                  CONTENTS, READONLY, DEBUGGING
  5 .comment      0000002f  00000000  00000000  00001bca  2**0
                  CONTENTS, READONLY
  6 .debug_aranges 00000030  00000000  00000000  00001bf9  2**0
                  CONTENTS, READONLY, DEBUGGING
  7 .debug_info   0000033a  00000000  00000000  00001c29  2**0
                  CONTENTS, READONLY, DEBUGGING
  8 .debug_abbrev 000001ef  00000000  00000000  00001f63  2**0
                  CONTENTS, READONLY, DEBUGGING
  9 .debug_line   000002c5  00000000  00000000  00002152  2**0
                  CONTENTS, READONLY, DEBUGGING
 10 .debug_frame  0000006c  00000000  00000000  00002418  2**2
                  CONTENTS, READONLY, DEBUGGING
 11 .debug_str    00000179  00000000  00000000  00002484  2**0
                  CONTENTS, READONLY, DEBUGGING
 12 .debug_loc    000001f8  00000000  00000000  000025fd  2**0
                  CONTENTS, READONLY, DEBUGGING
 13 .debug_ranges 00000020  00000000  00000000  000027f5  2**0
                  CONTENTS, READONLY, DEBUGGING

Disassembly of section .text:

00000000 <__vectors>:
       0:	0c 94 b4 07 	jmp	0xf68	; 0xf68 <__ctors_end>
       4:	0c 94 c6 07 	jmp	0xf8c	; 0xf8c <__bad_interrupt>
       8:	0c 94 c6 07 	jmp	0xf8c	; 0xf8c <__bad_interrupt>
       c:	0c 94 c6 07 	jmp	0xf8c	; 0xf8c <__bad_interrupt>
      10:	0c 94 c6 07 	jmp	0xf8c	; 0xf8c <__bad_interrupt>
      14:	0c 94 c6 07 	jmp	0xf8c	; 0xf8c <__bad_interrupt>
      18:	0c 94 c6 07 	jmp	0xf8c	; 0xf8c <__bad_interrupt>
      1c:	0c 94 c6 07 	jmp	0xf8c	; 0xf8c <__bad_interrupt>
      20:	0c 94 c6 07 	jmp	0xf8c	; 0xf8c <__bad_interrupt>
      24:	0c 94 c6 07 	jmp	0xf8c	; 0xf8c <__bad_interrupt>
      28:	0c 94 c6 07 	jmp	0xf8c	; 0xf8c <__bad_interrupt>
      2c:	0c 94 c6 07 	jmp	0xf8c	; 0xf8c <__bad_interrupt>
      30:	0c 94 c6 07 	jmp	0xf8c	; 0xf8c <__bad_interrupt>
      34:	0c 94 c6 07 	jmp	0xf8c	; 0xf8c <__bad_interrupt>
      38:	0c 94 c6 07 	jmp	0xf8c	; 0xf8c <__bad_interrupt>
      3c:	0c 94 c6 07 	jmp	0xf8c	; 0xf8c <__bad_interrupt>
      40:	0c 94 1e 08 	jmp	0x103c	; 0x103c <__vector_16>
      44:	0c 94 c6 07 	jmp	0xf8c	; 0xf8c <__bad_interrupt>
      48:	0c 94 c6 07 	jmp	0xf8c	; 0xf8c <__bad_interrupt>
      4c:	0c 94 c6 07 	jmp	0xf8c	; 0xf8c <__bad_interrupt>
      50:	0c 94 c6 07 	jmp	0xf8c	; 0xf8c <__bad_interrupt>
      54:	0c 94 c6 07 	jmp	0xf8c	; 0xf8c <__bad_interrupt>
      58:	0c 94 c6 07 	jmp	0xf8c	; 0xf8c <__bad_interrupt>
      5c:	0c 94 c6 07 	jmp	0xf8c	; 0xf8c <__bad_interrupt>
      60:	0c 94 c6 07 	jmp	0xf8c	; 0xf8c <__bad_interrupt>
      64:	0c 94 c6 07 	jmp	0xf8c	; 0xf8c <__bad_interrupt>

00000068 <NOMES>:
      68:	00 80 c0 d8 f8 fc fc 7c 7e 3e 3e 36 17 07 03 03     .......|~>>6....
      78:	01 00 00 ff 88 88 88 70 00 ff 91 91 91 91 00 80     .......p........
      88:	80 ff 80 80 00 00 00 00 ff 91 91 91 91 00 ff 01     ................
      98:	01 01 01 00 ff 91 91 91 91 00 80 80 ff 80 80 00     ................
      a8:	ff 90 90 98 96 61 00 ff 00 3c 42 81 81 81 42 00     .....a...<B...B.
      b8:	03 0c 74 84 74 0c 03 00 00 00 00 fe 01 01 01 01     ..t.t...........
      c8:	fe 00 ff 90 90 90 80 00 ff 88 88 88 70 00 ff 90     ............p...
      d8:	90 98 96 61 00 00 01 03 03 07 17 36 3e 3e 7e 7c     ...a.......6>>~|
      e8:	fc fc f8 d8 c0 80 00 00 00 00 ff ff ff 00 00 f8     ................
      f8:	f8 f8 00 00 db db db db db db db 00 00 c0 c0 c0     ................
     108:	df df c0 c0 c0 00 00 00 00 00 00 00 fe 01 01 01     ................
     118:	01 fe 00 ff 90 90 90 80 00 ff 88 88 88 70 00 ff     .............p..
     128:	90 90 98 96 61 00 00 00 00 20 40 ff 00 00 00 7e     ....a.... @....~
     138:	81 81 81 7e 00 7e 81 81 81 7e 00 00 00 00 03 0c     ...~.~...~......
     148:	74 84 74 0c 03 00 ff 40 30 0c 02 ff 00 3c 42 81     t.t....@0....<B.
     158:	81 81 42 3c 00 62 91 91 89 89 46 00 00 00 00 00     ..B<.b....F.....
     168:	ff 90 90 90 80 00 ff 91 91 91 91 00 ff 01 01 01     ................
     178:	01 00 ff 00 ff 88 88 88 70 00 ff 91 91 91 91 00     ........p.......
     188:	00 00 00 00 00 00 00 ff 91 91 91 91 00 ff 01 01     ................
     198:	01 01 00 ff 91 91 91 91 00 80 80 ff 80 80 00 ff     ................
     1a8:	90 90 98 96 61 00 ff 00 3c 42 81 81 81 42 00 03     ....a...<B...B..
     1b8:	0c 74 84 74 0c 03 00 00 00 00 00 00 00 ff ff ff     .t.t............
     1c8:	00 00 f8 f8 f8 00 00 db db db db db db db 00 00     ................
     1d8:	c0 c0 c0 df df c0 c0 c0 00 00 00 00 00 00 00 ff     ................
     1e8:	90 90 90 80 00 ff 91 91 91 91 00 ff 01 01 01 01     ................
     1f8:	00 ff 00 ff 88 88 88 70 00 ff 91 91 91 91 00 00     .......p........
     208:	00 00 00 00 00 00 00 ff 91 91 91 91 00 ff 01 01     ................
     218:	01 01 00 ff 91 91 91 91 00 80 80 ff 80 80 00 ff     ................
     228:	90 90 98 96 61 00 ff 00 3c 42 81 81 81 42 00 03     ....a...<B...B..
     238:	0c 74 84 74 0c 03 00 00 00 00 00 00 00 00 00 00     .t.t............
     248:	ff ff ff 00 00 f8 f8 f8 00 00 db db db db db db     ................
     258:	db 00 00 c0 c0 c0 df df c0 c0 c0 00 00 00 00 00     ................
     268:	00 00 3c 42 81 81 89 4a 2c 00 ff 00 62 91 91 89     ..<B...J,...b...
     278:	89 46 00 ff 91 91 91 91 00 ff 01 01 01 01 00 ff     .F..............
     288:	91 91 91 91 00 00 00 00 ff 88 88 88 70 00 ff 91     ............p...
     298:	91 91 91 00 80 80 ff 80 80 00 00 00 00 ff 91 91     ................
     2a8:	91 91 00 ff 01 01 01 01 00 ff 91 91 91 91 00 80     ................
     2b8:	80 ff 80 80 00 ff 90 90 98 96 61 00 ff 00 3c 42     ..........a...<B
     2c8:	81 81 81 42 00 03 0c 74 84 74 0c 03 00 00 00 00     ...B...t.t......
	...
     2e8:	3c 42 81 81 89 4a 2c 00 ff 00 62 91 91 89 89 46     <B...J,...b....F
     2f8:	00 ff 91 91 91 91 00 ff 01 01 01 01 00 ff 91 91     ................
     308:	91 91 00 00 00 00 ff 88 88 88 70 00 ff 91 91 91     ..........p.....
     318:	91 00 80 80 ff 80 80 00 00 00 00 ff 91 91 91 91     ................
     328:	00 ff 01 01 01 01 00 ff 91 91 91 91 00 80 80 ff     ................
     338:	80 80 00 ff 90 90 98 96 61 00 ff 00 3c 42 81 81     ........a...<B..
     348:	81 42 00 03 0c 74 84 74 0c 03 00 00 00 00 00 00     .B...t.t........
	...
     368:	00 03 0c 74 84 74 0c 03 00 ff 40 30 0c 02 ff 00     ...t.t....@0....
     378:	ff 81 81 81 42 3c 00 ff 90 90 98 96 61 00 ff 91     ....B<......a...
     388:	91 91 91 00 62 91 91 89 89 46 00 62 91 91 89 89     ....b....F.b....
     398:	46 00 03 0c 74 84 74 0c 03 00 00 00 00 ff 81 81     F...t.t.........
     3a8:	81 42 3c 00 03 0c 74 84 74 0c 03 00 ff 91 91 91     .B<...t.t.......
     3b8:	91 00 ff 01 01 01 01 00 00 00 00 ff 91 91 91 91     ................
     3c8:	00 ff 01 01 01 01 00 ff 91 91 91 91 00 80 80 ff     ................
     3d8:	80 80 00 ff 90 90 98 96 61 00 ff 00 3c 42 81 81     ........a...<B..
     3e8:	81 42 00 03 0c 74 84 74 0c 03 00 00 00 00 00 00     .B...t.t........
	...
     400:	00 03 0c 74 84 74 0c 03 00 ff 40 30 0c 02 ff 00     ...t.t....@0....
     410:	ff 81 81 81 42 3c 00 ff 90 90 98 96 61 00 ff 91     ....B<......a...
     420:	91 91 91 00 62 91 91 89 89 46 00 62 91 91 89 89     ....b....F.b....
     430:	46 00 03 0c 74 84 74 0c 03 00 00 00 00 00 00 00     F...t.t.........
     440:	ff 81 81 81 42 3c 00 03 0c 74 84 74 0c 03 00 ff     ....B<...t.t....
     450:	91 91 91 91 00 ff 01 01 01 01 00 00 00 00 00 00     ................
	...
     468:	ff 91 91 91 91 c0 3c 03 0c 70 80 70 0c 03 3c c0     ......<..p.p..<.
     478:	03 0c 74 84 74 0c 03 00 ff 01 01 01 01 00 ff 81     ..t.t...........
     488:	81 81 42 3c 00 3c 42 81 81 81 42 3c 00 00 00 00     ..B<.<B...B<....
     498:	ff 60 1c 03 1c 60 ff 00 ff 91 91 91 91 00 ff 10     .`...`..........
     4a8:	10 10 10 ff 00 ff 01 01 01 01 00 00 00 00 ff 91     ................
     4b8:	91 91 91 00 ff 01 01 01 01 00 ff 91 91 91 91 00     ................
     4c8:	80 80 ff 80 80 00 ff 90 90 98 96 61 00 ff 00 3c     ...........a...<
     4d8:	42 81 81 81 42 00 03 0c 74 84 74 0c 03 00 00 00     B...B...t.t.....
     4e8:	00 00 00 ff 91 91 91 91 c0 3c 03 0c 70 80 70 0c     .........<..p.p.
     4f8:	03 3c c0 03 0c 74 84 74 0c 03 00 ff 01 01 01 01     .<...t.t........
     508:	00 ff 81 81 81 42 3c 00 3c 42 81 81 81 42 3c 00     .....B<.<B...B<.
     518:	00 00 00 ff 60 1c 03 1c 60 ff 00 ff 91 91 91 91     ....`...`.......
     528:	00 ff 10 10 10 10 ff 00 ff 01 01 01 01 00 00 00     ................
     538:	ff 91 91 91 91 00 ff 01 01 01 01 00 ff 91 91 91     ................
     548:	91 00 80 80 ff 80 80 00 ff 90 90 98 96 61 00 ff     .............a..
     558:	00 3c 42 81 81 81 42 00 03 0c 74 84 74 0c 03 00     .<B...B...t.t...
     568:	00 00 ff 88 88 88 70 00 03 0c 74 84 74 0c 03 00     ......p...t.t...
     578:	fe 01 01 01 01 fe 00 ff 01 01 01 01 00 03 0c 74     ...............t
     588:	84 74 0c 03 00 00 00 00 ff 88 88 88 70 00 ff 91     .t..........p...
     598:	91 91 91 00 80 80 ff 80 80 00 00 00 00 ff 91 91     ................
     5a8:	91 91 00 ff 01 01 01 01 00 ff 91 91 91 91 00 80     ................
     5b8:	80 ff 80 80 00 ff 90 90 98 96 61 00 ff 00 3c 42     ..........a...<B
     5c8:	81 81 81 42 00 03 0c 74 84 74 0c 03 00 00 00 00     ...B...t.t......
	...
     5e8:	00 00 ff 88 88 88 70 00 03 0c 74 84 74 0c 03 00     ......p...t.t...
     5f8:	fe 01 01 01 01 fe 00 ff 01 01 01 01 00 03 0c 74     ...............t
     608:	84 74 0c 03 00 00 00 00 ff 88 88 88 70 00 ff 91     .t..........p...
     618:	91 91 91 00 80 80 ff 80 80 00 00 00 00 ff 91 91     ................
     628:	91 91 00 ff 01 01 01 01 00 ff 91 91 91 91 00 80     ................
     638:	80 ff 80 80 00 ff 90 90 98 96 61 00 ff 00 3c 42     ..........a...<B
     648:	81 81 81 42 00 03 0c 74 84 74 0c 03 00 00 00 00     ...B...t.t......
	...
     668:	ff 90 90 98 96 61 00 03 0c 74 84 74 0c 03 00 ff     .....a...t.t....
     678:	88 88 88 70 00 ff 10 10 10 10 ff 00 03 0c 74 84     ...p..........t.
     688:	74 0c 03 00 ff 91 91 91 91 00 ff 01 01 01 01 00     t...............
     698:	00 00 00 ff 81 81 81 42 3c 00 03 0c 74 84 74 0c     .......B<...t.t.
     6a8:	03 00 ff 91 91 91 91 00 ff 01 01 01 01 00 00 00     ................
     6b8:	00 ff 91 91 91 91 00 ff 01 01 01 01 00 ff 91 91     ................
     6c8:	91 91 00 80 80 ff 80 80 00 ff 90 90 98 96 61 00     ..............a.
     6d8:	ff 00 3c 42 81 81 81 42 00 03 0c 74 84 74 0c 03     ..<B...B...t.t..
	...
     6f4:	00 00 ff 90 90 98 96 61 00 03 0c 74 84 74 0c 03     .......a...t.t..
     704:	00 ff 88 88 88 70 00 ff 10 10 10 10 ff 00 03 0c     .....p..........
     714:	74 84 74 0c 03 00 ff 91 91 91 91 00 ff 01 01 01     t.t.............
     724:	01 00 00 00 00 ff 91 91 91 91 00 ff 01 01 01 01     ................
     734:	00 ff 91 91 91 91 00 80 80 ff 80 80 00 ff 90 90     ................
     744:	98 96 61 00 ff 00 3c 42 81 81 81 42 00 03 0c 74     ..a...<B...B...t
     754:	84 74 0c 03 00 00 00 00 00 00 00 00 00 00 00 00     .t..............
     764:	00 00 00 00 c0 30 0c 03 0c 30 c0 00 ff 00 3c 42     .....0...0....<B
     774:	81 81 81 42 00 80 80 ff 80 80 00 3c 42 81 81 81     ...B.......<B...
     784:	42 3c 00 ff 90 90 98 96 61 00 00 00 00 ff 88 88     B<......a.......
     794:	88 70 00 ff 91 91 91 91 00 80 80 ff 80 80 00 00     .p..............
     7a4:	00 00 ff 91 91 91 91 00 ff 01 01 01 01 00 ff 91     ................
     7b4:	91 91 91 00 80 80 ff 80 80 00 ff 90 90 98 96 61     ...............a
     7c4:	00 ff 00 3c 42 81 81 81 42 00 03 0c 74 84 74 0c     ...<B...B...t.t.
     7d4:	03 00 00 00 00 00 00 00 00 00 00 00 00 00 00 00     ................
     7e4:	00 00 00 00 00 c0 30 0c 03 0c 30 c0 00 ff 00 3c     ......0...0....<
     7f4:	42 81 81 81 42 00 80 80 ff 80 80 00 3c 42 81 81     B...B.......<B..
     804:	81 42 3c 00 ff 90 90 98 96 61 00 00 00 00 ff 88     .B<......a......
     814:	88 88 70 00 ff 91 91 91 91 00 80 80 ff 80 80 00     ..p.............
     824:	00 00 00 ff 91 91 91 91 00 ff 01 01 01 01 00 ff     ................
     834:	91 91 91 91 00 80 80 ff 80 80 00 ff 90 90 98 96     ................
     844:	61 00 ff 00 3c 42 81 81 81 42 00 03 0c 74 84 74     a...<B...B...t.t
     854:	0c 03 00 00 00 00 00 00 00 00 00 00 00 00 00 00     ................
     864:	00 00 00 00 ff 88 88 88 70 00 03 0c 74 84 74 0c     ........p...t.t.
     874:	03 00 fe 01 01 01 01 fe 00 ff 01 01 01 01 00 3c     ...............<
     884:	42 81 81 81 42 3c 00 00 00 00 ff 88 88 88 70 00     B...B<........p.
     894:	ff 91 91 91 91 00 80 80 ff 80 80 00 00 00 00 ff     ................
     8a4:	91 91 91 91 00 ff 01 01 01 01 00 ff 91 91 91 91     ................
     8b4:	00 80 80 ff 80 80 00 ff 90 90 98 96 61 00 ff 00     ............a...
     8c4:	3c 42 81 81 81 42 00 03 0c 74 84 74 0c 03 00 00     <B...B...t.t....
	...
     8e8:	ff 88 88 88 70 00 03 0c 74 84 74 0c 03 00 fe 01     ....p...t.t.....
     8f8:	01 01 01 fe 00 ff 01 01 01 01 00 3c 42 81 81 81     ...........<B...
     908:	42 3c 00 00 00 00 ff 88 88 88 70 00 ff 91 91 91     B<........p.....
     918:	91 00 80 80 ff 80 80 00 00 00 00 ff 91 91 91 91     ................
     928:	00 ff 01 01 01 01 00 ff 91 91 91 91 00 80 80 ff     ................
     938:	80 80 00 ff 90 90 98 96 61 00 ff 00 3c 42 81 81     ........a...<B..
     948:	81 42 00 03 0c 74 84 74 0c 03 00 00 00 00 00 00     .B...t.t........
	...
     968:	3c 42 81 81 89 4a 2c 00 fe 01 01 01 01 fe 00 ff     <B...J,.........
     978:	00 ff 01 01 01 01 00 ff 10 10 10 10 ff 00 ff 91     ................
     988:	91 91 91 00 ff 90 90 98 96 61 00 ff 60 1c 03 1c     .........a..`...
     998:	60 ff 00 ff 91 91 91 91 00 00 00 00 ff 88 88 88     `...............
     9a8:	70 00 ff 91 91 91 91 00 80 80 ff 80 80 00 00 00     p...............
     9b8:	00 ff 91 91 91 91 00 ff 01 01 01 01 00 ff 91 91     ................
     9c8:	91 91 00 80 80 ff 80 80 00 ff 90 90 98 96 61 00     ..............a.
     9d8:	ff 00 3c 42 81 81 81 42 00 03 0c 74 84 74 0c 03     ..<B...B...t.t..
	...
     9f8:	03 0c 74 84 74 0c 03 00 c0 30 0c 03 0c 30 c0 00     ..t.t....0...0..
     a08:	03 0c 74 84 74 0c 03 00 ff 00 00 00 00 ff 88 88     ..t.t...........
     a18:	88 70 00 ff 91 91 91 91 00 80 80 ff 80 80 00 00     .p..............
     a28:	00 00 ff 91 91 91 91 00 ff 01 01 01 01 00 ff 91     ................
     a38:	91 91 91 00 80 80 ff 80 80 00 ff 90 90 98 96 61     ...............a
     a48:	00 ff 00 3c 42 81 81 81 42 00 03 0c 74 84 74 0c     ...<B...B...t.t.
     a58:	03 00 00 00 00 00 00 00 00 00 00 00 00 00 00 00     ................
     a68:	ff 91 91 91 91 00 ff 81 81 81 42 3c 00 fe 01 01     ..........B<....
     a78:	01 01 fe 00 03 0c 74 84 74 0c 03 00 ff 90 90 98     ......t.t.......
     a88:	96 61 00 ff 81 81 81 42 3c 00 3c 42 81 81 81 42     .a.....B<.<B...B
     a98:	3c 00 00 00 00 ff 88 88 88 70 00 ff 91 91 91 91     <........p......
     aa8:	00 80 80 ff 80 80 00 00 00 00 ff 91 91 91 91 00     ................
     ab8:	ff 01 01 01 01 00 ff 91 91 91 91 00 80 80 ff 80     ................
     ac8:	80 00 ff 90 90 98 96 61 00 ff 00 3c 42 81 81 81     .......a...<B...
     ad8:	42 00 03 0c 74 84 74 0c 03 00 00 00 00 00 00 00     B...t.t.........
     ae8:	00 00 ff 91 91 91 91 00 ff 81 81 81 42 3c 00 fe     ............B<..
     af8:	01 01 01 01 fe 00 03 0c 74 84 74 0c 03 00 ff 90     ........t.t.....
     b08:	90 98 96 61 00 ff 81 81 81 42 3c 00 3c 42 81 81     ...a.....B<.<B..
     b18:	81 42 3c 00 00 00 00 ff 88 88 88 70 00 ff 91 91     .B<........p....
     b28:	91 91 00 80 80 ff 80 80 00 00 00 00 ff 91 91 91     ................
     b38:	91 00 ff 01 01 01 01 00 ff 91 91 91 91 00 80 80     ................
     b48:	ff 80 80 00 ff 90 90 98 96 61 00 ff 00 3c 42 81     .........a...<B.
     b58:	81 81 42 00 03 0c 74 84 74 0c 03 00 00 00 00 00     ..B...t.t.......
     b68:	ff 48 84 84 78 00 3f 10 20 00 1e 21 21 21 1e 00     .H..x.?. ..!!!..
     b78:	20 7f a0 00 00 00 00 06 01 01 fe 00 03 0c 74 84      .............t.
     b88:	74 0c 03 00 ff 60 1c 03 1c 60 ff 00 ff 91 91 91     t....`...`......
     b98:	91 00 62 91 91 89 89 46 00 00 00 00 ff 91 91 91     ..b....F........
     ba8:	91 00 ff 01 01 01 01 00 ff 91 91 91 91 00 80 80     ................
     bb8:	ff 80 80 00 ff 90 90 98 96 61 00 ff 00 3c 42 81     .........a...<B.
     bc8:	81 81 42 00 03 0c 74 84 74 0c 03 00 00 00 00 00     ..B...t.t.......
	...
     be4:	00 00 ff 48 84 84 78 00 3f 10 20 00 1e 21 21 21     ...H..x.?. ..!!!
     bf4:	1e 00 20 7f a0 00 00 00 00 06 01 01 fe 00 03 0c     .. .............
     c04:	74 84 74 0c 03 00 ff 60 1c 03 1c 60 ff 00 ff 91     t.t....`...`....
     c14:	91 91 91 00 62 91 91 89 89 46 00 00 00 00 ff 91     ....b....F......
     c24:	91 91 91 00 ff 01 01 01 01 00 ff 91 91 91 91 00     ................
     c34:	80 80 ff 80 80 00 ff 90 90 98 96 61 00 ff 00 3c     ...........a...<
     c44:	42 81 81 81 42 00 03 0c 74 84 74 0c 03 00 00 00     B...B...t.t.....
	...
     c68:	ff 88 88 88 70 00 3f 10 20 00 1e 21 21 21 1e 00     ....p.?. ..!!!..
     c78:	20 7f a0 00 00 00 00 ff 01 01 01 01 00 fe 01 01      ...............
     c88:	01 01 fe 00 ff 00 01 83 8d b1 c1 81 00 00 00 00     ................
     c98:	ff 91 91 91 91 00 ff 01 01 01 01 00 ff 91 91 91     ................
     ca8:	91 00 80 80 ff 80 80 00 ff 90 90 98 96 61 00 ff     .............a..
     cb8:	00 3c 42 81 81 81 42 00 03 0c 74 84 74 0c 03 00     .<B...B...t.t...
	...
     ce4:	00 00 ff 88 88 88 70 00 3f 10 20 00 1e 21 21 21     ......p.?. ..!!!
     cf4:	1e 00 20 7f a0 00 00 00 00 ff 01 01 01 01 00 fe     .. .............
     d04:	01 01 01 01 fe 00 ff 00 01 83 8d b1 c1 81 00 00     ................
     d14:	00 00 ff 91 91 91 91 00 ff 01 01 01 01 00 ff 91     ................
     d24:	91 91 91 00 80 80 ff 80 80 00 ff 90 90 98 96 61     ...............a
     d34:	00 ff 00 3c 42 81 81 81 42 00 03 0c 74 84 74 0c     ...<B...B...t.t.
     d44:	03 00 00 00 00 00 00 00 00 00 00 00 00 00 00 00     ................
	...
     d68:	ff 88 88 88 70 00 3f 10 20 00 1e 21 21 21 1e 00     ....p.?. ..!!!..
     d78:	20 7f a0 00 00 00 00 ff 88 88 88 70 00 03 0c 74      ..........p...t
     d88:	84 74 0c 03 00 3c 42 81 81 81 42 00 ff 10 10 10     .t...<B...B.....
     d98:	10 ff 00 ff 91 91 91 91 00 3c 42 81 81 81 42 00     .........<B...B.
     da8:	3c 42 81 81 81 42 3c 00 00 00 00 ff 91 91 91 91     <B...B<.........
     db8:	00 ff 01 01 01 01 00 ff 91 91 91 91 00 80 80 ff     ................
     dc8:	80 80 00 ff 90 90 98 96 61 00 ff 00 3c 42 81 81     ........a...<B..
     dd8:	81 42 00 03 0c 74 84 74 0c 03 00 00 00 00 00 00     .B...t.t........
     de8:	00 ff 88 88 88 70 00 3f 10 20 00 1e 21 21 21 1e     .....p.?. ..!!!.
     df8:	00 20 7f a0 00 00 00 00 ff 88 88 88 70 00 03 0c     . ..........p...
     e08:	74 84 74 0c 03 00 3c 42 81 81 81 42 00 ff 10 10     t.t...<B...B....
     e18:	10 10 ff 00 ff 91 91 91 91 00 3c 42 81 81 81 42     ..........<B...B
     e28:	00 3c 42 81 81 81 42 3c 00 00 00 00 ff 91 91 91     .<B...B<........
     e38:	91 00 ff 01 01 01 01 00 ff 91 91 91 91 00 80 80     ................
     e48:	ff 80 80 00 ff 90 90 98 96 61 00 ff 00 3c 42 81     .........a...<B.
     e58:	81 81 42 00 03 0c 74 84 74 0c 03 00 00 00 00 00     ..B...t.t.......
     e68:	ff 88 88 88 70 00 3f 10 20 00 1e 21 21 21 1e 00     ....p.?. ..!!!..
     e78:	20 7f a0 00 00 00 00 ff 60 1c 03 1c 60 ff 00 03      .......`...`...
     e88:	0c 74 84 74 0c 03 00 ff 90 90 98 96 61 00 ff 00     .t.t........a...
     e98:	03 0c 74 84 74 0c 03 00 ff 40 30 0c 02 ff 00 3c     ..t.t....@0....<
     ea8:	42 81 81 81 42 3c 00 00 00 00 ff 91 91 91 91 00     B...B<..........
     eb8:	ff 01 01 01 01 00 ff 91 91 91 91 00 80 80 ff 80     ................
     ec8:	80 00 ff 90 90 98 96 61 00 ff 00 3c 42 81 81 81     .......a...<B...
     ed8:	42 00 03 0c 74 84 74 0c 03 00 00 00 00 00 00 00     B...t.t.........
     ee8:	ff 88 88 88 70 00 3f 10 20 00 1e 21 21 21 1e 00     ....p.?. ..!!!..
     ef8:	20 7f a0 00 00 00 00 ff 60 1c 03 1c 60 ff 00 03      .......`...`...
     f08:	0c 74 84 74 0c 03 00 ff 90 90 98 96 61 00 ff 00     .t.t........a...
     f18:	03 0c 74 84 74 0c 03 00 ff 40 30 0c 02 ff 00 3c     ..t.t....@0....<
     f28:	42 81 81 81 42 3c 00 00 00 00 ff 91 91 91 91 00     B...B<..........
     f38:	ff 01 01 01 01 00 ff 91 91 91 91 00 80 80 ff 80     ................
     f48:	80 00 ff 90 90 98 96 61 00 ff 00 3c 42 81 81 81     .......a...<B...
     f58:	42 00 03 0c 74 84 74 0c 03 00 00 00 00 00 00 00     B...t.t.........

00000f68 <__ctors_end>:
     f68:	11 24       	eor	r1, r1
     f6a:	1f be       	out	0x3f, r1	; 63
     f6c:	cf ef       	ldi	r28, 0xFF	; 255
     f6e:	d8 e0       	ldi	r29, 0x08	; 8
     f70:	de bf       	out	0x3e, r29	; 62
     f72:	cd bf       	out	0x3d, r28	; 61

00000f74 <__do_clear_bss>:
     f74:	22 e0       	ldi	r18, 0x02	; 2
     f76:	a0 e0       	ldi	r26, 0x00	; 0
     f78:	b1 e0       	ldi	r27, 0x01	; 1
     f7a:	01 c0       	rjmp	.+2      	; 0xf7e <.do_clear_bss_start>

00000f7c <.do_clear_bss_loop>:
     f7c:	1d 92       	st	X+, r1

00000f7e <.do_clear_bss_start>:
     f7e:	a5 30       	cpi	r26, 0x05	; 5
     f80:	b2 07       	cpc	r27, r18
     f82:	e1 f7       	brne	.-8      	; 0xf7c <.do_clear_bss_loop>
     f84:	0e 94 c8 07 	call	0xf90	; 0xf90 <main>
     f88:	0c 94 d7 08 	jmp	0x11ae	; 0x11ae <_exit>

00000f8c <__bad_interrupt>:
     f8c:	0c 94 00 00 	jmp	0	; 0x0 <__vectors>

00000f90 <main>:
		_delay_ms(100);
	}		
}	
int main(void){
	int a, b;
	DDRB = 0b11111111;
     f90:	8f ef       	ldi	r24, 0xFF	; 255
     f92:	84 b9       	out	0x04, r24	; 4
	DDRC = 0b11011111;
     f94:	8f ed       	ldi	r24, 0xDF	; 223
     f96:	87 b9       	out	0x07, r24	; 7
	DDRD = 0b11111110;
     f98:	8e ef       	ldi	r24, 0xFE	; 254
     f9a:	8a b9       	out	0x0a, r24	; 10
	
	POSICAO = 0;
     f9c:	10 92 02 01 	sts	0x0102, r1
	SEQUENCIA = 0;
     fa0:	10 92 00 01 	sts	0x0100, r1

	NEXTB = 0b10101011;
     fa4:	8b ea       	ldi	r24, 0xAB	; 171
     fa6:	80 93 04 02 	sts	0x0204, r24
	NEXTC = 0b00000010;
     faa:	82 e0       	ldi	r24, 0x02	; 2
     fac:	80 93 01 01 	sts	0x0101, r24
	NEXTD = 0b01010000;//todos apagados
     fb0:	90 e5       	ldi	r25, 0x50	; 80
     fb2:	90 93 03 01 	sts	0x0103, r25
	
	PORTB = 0b10101011 & 0b11111101;
     fb6:	99 ea       	ldi	r25, 0xA9	; 169
     fb8:	95 b9       	out	0x05, r25	; 5
	PORTC = 0b00000010;
     fba:	88 b9       	out	0x08, r24	; 8
	PORTD = 0b01010000 | 0b00001000;
     fbc:	88 e5       	ldi	r24, 0x58	; 88
     fbe:	8b b9       	out	0x0b, r24	; 11
			}
		}
	}	*/
	
	
	a = eeprom_read_byte((uint8_t *)0);
     fc0:	80 e0       	ldi	r24, 0x00	; 0
     fc2:	90 e0       	ldi	r25, 0x00	; 0
     fc4:	0e 94 c1 08 	call	0x1182	; 0x1182 <__eerd_byte_m328p>
     fc8:	c8 2f       	mov	r28, r24
     fca:	d0 e0       	ldi	r29, 0x00	; 0
	if(a>=NUM_PESSOAS)a=0;
     fcc:	cf 30       	cpi	r28, 0x0F	; 15
     fce:	d1 05       	cpc	r29, r1
     fd0:	14 f0       	brlt	.+4      	; 0xfd6 <main+0x46>
     fd2:	c0 e0       	ldi	r28, 0x00	; 0
     fd4:	d0 e0       	ldi	r29, 0x00	; 0
	if((PINC&0b00100000)==0){//muda a pessoa
     fd6:	35 99       	sbic	0x06, 5	; 6
     fd8:	0b c0       	rjmp	.+22     	; 0xff0 <main+0x60>
		a++;
     fda:	21 96       	adiw	r28, 0x01	; 1
		if(a>=NUM_PESSOAS)a=0;
     fdc:	cf 30       	cpi	r28, 0x0F	; 15
     fde:	d1 05       	cpc	r29, r1
     fe0:	14 f0       	brlt	.+4      	; 0xfe6 <main+0x56>
     fe2:	c0 e0       	ldi	r28, 0x00	; 0
     fe4:	d0 e0       	ldi	r29, 0x00	; 0
		eeprom_write_byte((uint8_t*)0, a);
     fe6:	6c 2f       	mov	r22, r28
     fe8:	80 e0       	ldi	r24, 0x00	; 0
     fea:	90 e0       	ldi	r25, 0x00	; 0
     fec:	0e 94 c9 08 	call	0x1192	; 0x1192 <__eewr_byte_m328p>
     ff0:	a4 e0       	ldi	r26, 0x04	; 4
     ff2:	b1 e0       	ldi	r27, 0x01	; 1
	}
	for(b=0;b<256;b++){
     ff4:	80 e0       	ldi	r24, 0x00	; 0
     ff6:	90 e0       	ldi	r25, 0x00	; 0
		BUFFER[b] = pgm_read_byte(&(NOMES[(unsigned)a][(unsigned)b]));
     ff8:	3c 2f       	mov	r19, r28
     ffa:	22 27       	eor	r18, r18
     ffc:	f9 01       	movw	r30, r18
     ffe:	e8 0f       	add	r30, r24
    1000:	f9 1f       	adc	r31, r25
    1002:	e8 59       	subi	r30, 0x98	; 152
    1004:	ff 4f       	sbci	r31, 0xFF	; 255
    1006:	e4 91       	lpm	r30, Z
    1008:	ed 93       	st	X+, r30
	if((PINC&0b00100000)==0){//muda a pessoa
		a++;
		if(a>=NUM_PESSOAS)a=0;
		eeprom_write_byte((uint8_t*)0, a);
	}
	for(b=0;b<256;b++){
    100a:	01 96       	adiw	r24, 0x01	; 1
    100c:	81 15       	cp	r24, r1
    100e:	41 e0       	ldi	r20, 0x01	; 1
    1010:	94 07       	cpc	r25, r20
    1012:	a1 f7       	brne	.-24     	; 0xffc <main+0x6c>
		BUFFER[b] = pgm_read_byte(&(NOMES[(unsigned)a][(unsigned)b]));
	}
	PORTB = 0b01111111;
    1014:	8f e7       	ldi	r24, 0x7F	; 127
    1016:	85 b9       	out	0x05, r24	; 5
	PORTC = 0b00000111;
    1018:	87 e0       	ldi	r24, 0x07	; 7
    101a:	88 b9       	out	0x08, r24	; 8
	PORTD = 0b11111000;
    101c:	88 ef       	ldi	r24, 0xF8	; 248
    101e:	8b b9       	out	0x0b, r24	; 11
	TCCR0B = 0b00000011;//SRC = CLK/64 //TCCR0 para atmega8
    1020:	83 e0       	ldi	r24, 0x03	; 3
    1022:	85 bd       	out	0x25, r24	; 37
	TCNT0 = 0;
    1024:	16 bc       	out	0x26, r1	; 38
	TIMSK0 = 0b00000001; //TIMSK para atmega8
    1026:	81 e0       	ldi	r24, 0x01	; 1
    1028:	80 93 6e 00 	sts	0x006E, r24
	sei();
    102c:	78 94       	sei
	#else
		//round up by default
		__ticks_dc = (uint32_t)(ceil(fabs(__tmp)));
	#endif

	__builtin_avr_delay_cycles(__ticks_dc);
    102e:	8f ec       	ldi	r24, 0xCF	; 207
    1030:	97 e0       	ldi	r25, 0x07	; 7
    1032:	01 97       	sbiw	r24, 0x01	; 1
    1034:	f1 f7       	brne	.-4      	; 0x1032 <main+0xa2>
    1036:	00 c0       	rjmp	.+0      	; 0x1038 <main+0xa8>
    1038:	00 00       	nop
    103a:	f9 cf       	rjmp	.-14     	; 0x102e <main+0x9e>

0000103c <__vector_16>:
	while(1){
		_delay_ms(1);
	}
}
ISR(TIMER0_OVF_vect){
    103c:	1f 92       	push	r1
    103e:	0f 92       	push	r0
    1040:	0f b6       	in	r0, 0x3f	; 63
    1042:	0f 92       	push	r0
    1044:	11 24       	eor	r1, r1
    1046:	2f 93       	push	r18
    1048:	3f 93       	push	r19
    104a:	8f 93       	push	r24
    104c:	9f 93       	push	r25
    104e:	ef 93       	push	r30
    1050:	ff 93       	push	r31
	char a, b;
	PORTB = NEXTB;
    1052:	80 91 04 02 	lds	r24, 0x0204
    1056:	85 b9       	out	0x05, r24	; 5
	PORTC = NEXTC;
    1058:	80 91 01 01 	lds	r24, 0x0101
    105c:	88 b9       	out	0x08, r24	; 8
	PORTD = NEXTD;
    105e:	80 91 03 01 	lds	r24, 0x0103
    1062:	8b b9       	out	0x0b, r24	; 11
	TCNT0 = 200;
    1064:	88 ec       	ldi	r24, 0xC8	; 200
    1066:	86 bd       	out	0x26, r24	; 38
	NEXTB = 0b10101011;
    1068:	8b ea       	ldi	r24, 0xAB	; 171
    106a:	80 93 04 02 	sts	0x0204, r24
	NEXTC = 0b00000010;
    106e:	82 e0       	ldi	r24, 0x02	; 2
    1070:	80 93 01 01 	sts	0x0101, r24
	NEXTD = 0b01010000;//todos apagados
    1074:	80 e5       	ldi	r24, 0x50	; 80
    1076:	80 93 03 01 	sts	0x0103, r24
	b = SEQUENCIA%8;
    107a:	20 91 00 01 	lds	r18, 0x0100
    107e:	92 2f       	mov	r25, r18
    1080:	97 70       	andi	r25, 0x07	; 7
	a = BUFFER[(POSICAO+b)&255];
    1082:	30 91 02 01 	lds	r19, 0x0102
    1086:	e3 2f       	mov	r30, r19
    1088:	e9 0f       	add	r30, r25
    108a:	f0 e0       	ldi	r31, 0x00	; 0
    108c:	ec 5f       	subi	r30, 0xFC	; 252
    108e:	fe 4f       	sbci	r31, 0xFE	; 254
    1090:	80 81       	ld	r24, Z
	switch(b){//PB0  PD6  PB7  PD4  PB1  PB3  PB5  PC1
    1092:	93 30       	cpi	r25, 0x03	; 3
    1094:	c1 f0       	breq	.+48     	; 0x10c6 <__vector_16+0x8a>
    1096:	20 f4       	brcc	.+8      	; 0x10a0 <__vector_16+0x64>
    1098:	91 30       	cpi	r25, 0x01	; 1
    109a:	69 f0       	breq	.+26     	; 0x10b6 <__vector_16+0x7a>
    109c:	80 f4       	brcc	.+32     	; 0x10be <__vector_16+0x82>
    109e:	08 c0       	rjmp	.+16     	; 0x10b0 <__vector_16+0x74>
    10a0:	95 30       	cpi	r25, 0x05	; 5
    10a2:	c9 f0       	breq	.+50     	; 0x10d6 <__vector_16+0x9a>
    10a4:	a0 f0       	brcs	.+40     	; 0x10ce <__vector_16+0x92>
    10a6:	96 30       	cpi	r25, 0x06	; 6
    10a8:	d1 f0       	breq	.+52     	; 0x10de <__vector_16+0xa2>
    10aa:	97 30       	cpi	r25, 0x07	; 7
    10ac:	f9 f4       	brne	.+62     	; 0x10ec <__vector_16+0xb0>
    10ae:	1b c0       	rjmp	.+54     	; 0x10e6 <__vector_16+0xaa>
		case 0:NEXTC&=0b11111101;break;
    10b0:	10 92 01 01 	sts	0x0101, r1
    10b4:	1b c0       	rjmp	.+54     	; 0x10ec <__vector_16+0xb0>
		case 1:NEXTB&=0b11011111;break;
    10b6:	9b e8       	ldi	r25, 0x8B	; 139
    10b8:	90 93 04 02 	sts	0x0204, r25
    10bc:	17 c0       	rjmp	.+46     	; 0x10ec <__vector_16+0xb0>
		case 2:NEXTB&=0b11110111;break;
    10be:	93 ea       	ldi	r25, 0xA3	; 163
    10c0:	90 93 04 02 	sts	0x0204, r25
    10c4:	13 c0       	rjmp	.+38     	; 0x10ec <__vector_16+0xb0>
		case 3:NEXTB&=0b11111101;break;
    10c6:	99 ea       	ldi	r25, 0xA9	; 169
    10c8:	90 93 04 02 	sts	0x0204, r25
    10cc:	0f c0       	rjmp	.+30     	; 0x10ec <__vector_16+0xb0>
		case 4:NEXTD&=0b11101111;break;
    10ce:	90 e4       	ldi	r25, 0x40	; 64
    10d0:	90 93 03 01 	sts	0x0103, r25
    10d4:	0b c0       	rjmp	.+22     	; 0x10ec <__vector_16+0xb0>
		case 5:NEXTB&=0b01111111;break;
    10d6:	9b e2       	ldi	r25, 0x2B	; 43
    10d8:	90 93 04 02 	sts	0x0204, r25
    10dc:	07 c0       	rjmp	.+14     	; 0x10ec <__vector_16+0xb0>
		case 6:NEXTD&=0b10111111;break;
    10de:	90 e1       	ldi	r25, 0x10	; 16
    10e0:	90 93 03 01 	sts	0x0103, r25
    10e4:	03 c0       	rjmp	.+6      	; 0x10ec <__vector_16+0xb0>
		case 7:NEXTB&=0b11111110;break;
    10e6:	9a ea       	ldi	r25, 0xAA	; 170
    10e8:	90 93 04 02 	sts	0x0204, r25
	}
	//PC2  PC0  PB4  PB2  PD3  PB6  PD5  PD7
	if(a&1  )NEXTD|=0b10000000;
    10ec:	80 ff       	sbrs	r24, 0
    10ee:	05 c0       	rjmp	.+10     	; 0x10fa <__vector_16+0xbe>
    10f0:	90 91 03 01 	lds	r25, 0x0103
    10f4:	90 68       	ori	r25, 0x80	; 128
    10f6:	90 93 03 01 	sts	0x0103, r25
	if(a&2  )NEXTD|=0b00100000;
    10fa:	81 ff       	sbrs	r24, 1
    10fc:	05 c0       	rjmp	.+10     	; 0x1108 <__vector_16+0xcc>
    10fe:	90 91 03 01 	lds	r25, 0x0103
    1102:	90 62       	ori	r25, 0x20	; 32
    1104:	90 93 03 01 	sts	0x0103, r25
	if(a&4  )NEXTB|=0b01000000;
    1108:	82 ff       	sbrs	r24, 2
    110a:	05 c0       	rjmp	.+10     	; 0x1116 <__vector_16+0xda>
    110c:	90 91 04 02 	lds	r25, 0x0204
    1110:	90 64       	ori	r25, 0x40	; 64
    1112:	90 93 04 02 	sts	0x0204, r25
	if(a&8  )NEXTD|=0b00001000;
    1116:	83 ff       	sbrs	r24, 3
    1118:	05 c0       	rjmp	.+10     	; 0x1124 <__vector_16+0xe8>
    111a:	90 91 03 01 	lds	r25, 0x0103
    111e:	98 60       	ori	r25, 0x08	; 8
    1120:	90 93 03 01 	sts	0x0103, r25
	if(a&16 )NEXTB|=0b00000100;
    1124:	84 ff       	sbrs	r24, 4
    1126:	05 c0       	rjmp	.+10     	; 0x1132 <__vector_16+0xf6>
    1128:	90 91 04 02 	lds	r25, 0x0204
    112c:	94 60       	ori	r25, 0x04	; 4
    112e:	90 93 04 02 	sts	0x0204, r25
	if(a&32 )NEXTB|=0b00010000;
    1132:	85 ff       	sbrs	r24, 5
    1134:	05 c0       	rjmp	.+10     	; 0x1140 <__vector_16+0x104>
    1136:	90 91 04 02 	lds	r25, 0x0204
    113a:	90 61       	ori	r25, 0x10	; 16
    113c:	90 93 04 02 	sts	0x0204, r25
	if(a&64 )NEXTC|=0b00000001;
    1140:	86 ff       	sbrs	r24, 6
    1142:	05 c0       	rjmp	.+10     	; 0x114e <__vector_16+0x112>
    1144:	90 91 01 01 	lds	r25, 0x0101
    1148:	91 60       	ori	r25, 0x01	; 1
    114a:	90 93 01 01 	sts	0x0101, r25
	if(a&128)NEXTC|=0b00000100;
    114e:	88 23       	and	r24, r24
    1150:	2c f4       	brge	.+10     	; 0x115c <__vector_16+0x120>
    1152:	80 91 01 01 	lds	r24, 0x0101
    1156:	84 60       	ori	r24, 0x04	; 4
    1158:	80 93 01 01 	sts	0x0101, r24
	SEQUENCIA++;
    115c:	2f 5f       	subi	r18, 0xFF	; 255
    115e:	20 93 00 01 	sts	0x0100, r18
	if(SEQUENCIA==0)POSICAO++;
    1162:	21 11       	cpse	r18, r1
    1164:	03 c0       	rjmp	.+6      	; 0x116c <__vector_16+0x130>
    1166:	3f 5f       	subi	r19, 0xFF	; 255
    1168:	30 93 02 01 	sts	0x0102, r19
    116c:	ff 91       	pop	r31
    116e:	ef 91       	pop	r30
    1170:	9f 91       	pop	r25
    1172:	8f 91       	pop	r24
    1174:	3f 91       	pop	r19
    1176:	2f 91       	pop	r18
    1178:	0f 90       	pop	r0
    117a:	0f be       	out	0x3f, r0	; 63
    117c:	0f 90       	pop	r0
    117e:	1f 90       	pop	r1
    1180:	18 95       	reti

00001182 <__eerd_byte_m328p>:
    1182:	f9 99       	sbic	0x1f, 1	; 31
    1184:	fe cf       	rjmp	.-4      	; 0x1182 <__eerd_byte_m328p>
    1186:	92 bd       	out	0x22, r25	; 34
    1188:	81 bd       	out	0x21, r24	; 33
    118a:	f8 9a       	sbi	0x1f, 0	; 31
    118c:	99 27       	eor	r25, r25
    118e:	80 b5       	in	r24, 0x20	; 32
    1190:	08 95       	ret

00001192 <__eewr_byte_m328p>:
    1192:	26 2f       	mov	r18, r22

00001194 <__eewr_r18_m328p>:
    1194:	f9 99       	sbic	0x1f, 1	; 31
    1196:	fe cf       	rjmp	.-4      	; 0x1194 <__eewr_r18_m328p>
    1198:	1f ba       	out	0x1f, r1	; 31
    119a:	92 bd       	out	0x22, r25	; 34
    119c:	81 bd       	out	0x21, r24	; 33
    119e:	20 bd       	out	0x20, r18	; 32
    11a0:	0f b6       	in	r0, 0x3f	; 63
    11a2:	f8 94       	cli
    11a4:	fa 9a       	sbi	0x1f, 2	; 31
    11a6:	f9 9a       	sbi	0x1f, 1	; 31
    11a8:	0f be       	out	0x3f, r0	; 63
    11aa:	01 96       	adiw	r24, 0x01	; 1
    11ac:	08 95       	ret

000011ae <_exit>:
    11ae:	f8 94       	cli

000011b0 <__stop_program>:
    11b0:	ff cf       	rjmp	.-2      	; 0x11b0 <__stop_program>
